
ctarget:     file format elf64-x86-64


Disassembly of section .init:

0000000000400c60 <_init>:
  400c60:	48 83 ec 08          	sub    $0x8,%rsp
  400c64:	48 8b 05 8d 33 20 00 	mov    0x20338d(%rip),%rax        # 603ff8 <_DYNAMIC+0x1d0>
  400c6b:	48 85 c0             	test   %rax,%rax
  400c6e:	74 05                	je     400c75 <_init+0x15>
  400c70:	e8 2b 01 00 00       	callq  400da0 <__gmon_start__@plt>
  400c75:	48 83 c4 08          	add    $0x8,%rsp
  400c79:	c3                   	retq   

Disassembly of section .plt:

0000000000400c80 <strcasecmp@plt-0x10>:
  400c80:	ff 35 82 33 20 00    	pushq  0x203382(%rip)        # 604008 <_GLOBAL_OFFSET_TABLE_+0x8>
  400c86:	ff 25 84 33 20 00    	jmpq   *0x203384(%rip)        # 604010 <_GLOBAL_OFFSET_TABLE_+0x10>
  400c8c:	0f 1f 40 00          	nopl   0x0(%rax)

0000000000400c90 <strcasecmp@plt>:
  400c90:	ff 25 82 33 20 00    	jmpq   *0x203382(%rip)        # 604018 <_GLOBAL_OFFSET_TABLE_+0x18>
  400c96:	68 00 00 00 00       	pushq  $0x0
  400c9b:	e9 e0 ff ff ff       	jmpq   400c80 <_init+0x20>

0000000000400ca0 <__errno_location@plt>:
  400ca0:	ff 25 7a 33 20 00    	jmpq   *0x20337a(%rip)        # 604020 <_GLOBAL_OFFSET_TABLE_+0x20>
  400ca6:	68 01 00 00 00       	pushq  $0x1
  400cab:	e9 d0 ff ff ff       	jmpq   400c80 <_init+0x20>

0000000000400cb0 <srandom@plt>:
  400cb0:	ff 25 72 33 20 00    	jmpq   *0x203372(%rip)        # 604028 <_GLOBAL_OFFSET_TABLE_+0x28>
  400cb6:	68 02 00 00 00       	pushq  $0x2
  400cbb:	e9 c0 ff ff ff       	jmpq   400c80 <_init+0x20>

0000000000400cc0 <strncmp@plt>:
  400cc0:	ff 25 6a 33 20 00    	jmpq   *0x20336a(%rip)        # 604030 <_GLOBAL_OFFSET_TABLE_+0x30>
  400cc6:	68 03 00 00 00       	pushq  $0x3
  400ccb:	e9 b0 ff ff ff       	jmpq   400c80 <_init+0x20>

0000000000400cd0 <strcpy@plt>:
  400cd0:	ff 25 62 33 20 00    	jmpq   *0x203362(%rip)        # 604038 <_GLOBAL_OFFSET_TABLE_+0x38>
  400cd6:	68 04 00 00 00       	pushq  $0x4
  400cdb:	e9 a0 ff ff ff       	jmpq   400c80 <_init+0x20>

0000000000400ce0 <puts@plt>:
  400ce0:	ff 25 5a 33 20 00    	jmpq   *0x20335a(%rip)        # 604040 <_GLOBAL_OFFSET_TABLE_+0x40>
  400ce6:	68 05 00 00 00       	pushq  $0x5
  400ceb:	e9 90 ff ff ff       	jmpq   400c80 <_init+0x20>

0000000000400cf0 <write@plt>:
  400cf0:	ff 25 52 33 20 00    	jmpq   *0x203352(%rip)        # 604048 <_GLOBAL_OFFSET_TABLE_+0x48>
  400cf6:	68 06 00 00 00       	pushq  $0x6
  400cfb:	e9 80 ff ff ff       	jmpq   400c80 <_init+0x20>

0000000000400d00 <__stack_chk_fail@plt>:
  400d00:	ff 25 4a 33 20 00    	jmpq   *0x20334a(%rip)        # 604050 <_GLOBAL_OFFSET_TABLE_+0x50>
  400d06:	68 07 00 00 00       	pushq  $0x7
  400d0b:	e9 70 ff ff ff       	jmpq   400c80 <_init+0x20>

0000000000400d10 <mmap@plt>:
  400d10:	ff 25 42 33 20 00    	jmpq   *0x203342(%rip)        # 604058 <_GLOBAL_OFFSET_TABLE_+0x58>
  400d16:	68 08 00 00 00       	pushq  $0x8
  400d1b:	e9 60 ff ff ff       	jmpq   400c80 <_init+0x20>

0000000000400d20 <memset@plt>:
  400d20:	ff 25 3a 33 20 00    	jmpq   *0x20333a(%rip)        # 604060 <_GLOBAL_OFFSET_TABLE_+0x60>
  400d26:	68 09 00 00 00       	pushq  $0x9
  400d2b:	e9 50 ff ff ff       	jmpq   400c80 <_init+0x20>

0000000000400d30 <alarm@plt>:
  400d30:	ff 25 32 33 20 00    	jmpq   *0x203332(%rip)        # 604068 <_GLOBAL_OFFSET_TABLE_+0x68>
  400d36:	68 0a 00 00 00       	pushq  $0xa
  400d3b:	e9 40 ff ff ff       	jmpq   400c80 <_init+0x20>

0000000000400d40 <close@plt>:
  400d40:	ff 25 2a 33 20 00    	jmpq   *0x20332a(%rip)        # 604070 <_GLOBAL_OFFSET_TABLE_+0x70>
  400d46:	68 0b 00 00 00       	pushq  $0xb
  400d4b:	e9 30 ff ff ff       	jmpq   400c80 <_init+0x20>

0000000000400d50 <read@plt>:
  400d50:	ff 25 22 33 20 00    	jmpq   *0x203322(%rip)        # 604078 <_GLOBAL_OFFSET_TABLE_+0x78>
  400d56:	68 0c 00 00 00       	pushq  $0xc
  400d5b:	e9 20 ff ff ff       	jmpq   400c80 <_init+0x20>

0000000000400d60 <__libc_start_main@plt>:
  400d60:	ff 25 1a 33 20 00    	jmpq   *0x20331a(%rip)        # 604080 <_GLOBAL_OFFSET_TABLE_+0x80>
  400d66:	68 0d 00 00 00       	pushq  $0xd
  400d6b:	e9 10 ff ff ff       	jmpq   400c80 <_init+0x20>

0000000000400d70 <signal@plt>:
  400d70:	ff 25 12 33 20 00    	jmpq   *0x203312(%rip)        # 604088 <_GLOBAL_OFFSET_TABLE_+0x88>
  400d76:	68 0e 00 00 00       	pushq  $0xe
  400d7b:	e9 00 ff ff ff       	jmpq   400c80 <_init+0x20>

0000000000400d80 <gethostbyname@plt>:
  400d80:	ff 25 0a 33 20 00    	jmpq   *0x20330a(%rip)        # 604090 <_GLOBAL_OFFSET_TABLE_+0x90>
  400d86:	68 0f 00 00 00       	pushq  $0xf
  400d8b:	e9 f0 fe ff ff       	jmpq   400c80 <_init+0x20>

0000000000400d90 <__memmove_chk@plt>:
  400d90:	ff 25 02 33 20 00    	jmpq   *0x203302(%rip)        # 604098 <_GLOBAL_OFFSET_TABLE_+0x98>
  400d96:	68 10 00 00 00       	pushq  $0x10
  400d9b:	e9 e0 fe ff ff       	jmpq   400c80 <_init+0x20>

0000000000400da0 <__gmon_start__@plt>:
  400da0:	ff 25 fa 32 20 00    	jmpq   *0x2032fa(%rip)        # 6040a0 <_GLOBAL_OFFSET_TABLE_+0xa0>
  400da6:	68 11 00 00 00       	pushq  $0x11
  400dab:	e9 d0 fe ff ff       	jmpq   400c80 <_init+0x20>

0000000000400db0 <strtol@plt>:
  400db0:	ff 25 f2 32 20 00    	jmpq   *0x2032f2(%rip)        # 6040a8 <_GLOBAL_OFFSET_TABLE_+0xa8>
  400db6:	68 12 00 00 00       	pushq  $0x12
  400dbb:	e9 c0 fe ff ff       	jmpq   400c80 <_init+0x20>

0000000000400dc0 <memcpy@plt>:
  400dc0:	ff 25 ea 32 20 00    	jmpq   *0x2032ea(%rip)        # 6040b0 <_GLOBAL_OFFSET_TABLE_+0xb0>
  400dc6:	68 13 00 00 00       	pushq  $0x13
  400dcb:	e9 b0 fe ff ff       	jmpq   400c80 <_init+0x20>

0000000000400dd0 <time@plt>:
  400dd0:	ff 25 e2 32 20 00    	jmpq   *0x2032e2(%rip)        # 6040b8 <_GLOBAL_OFFSET_TABLE_+0xb8>
  400dd6:	68 14 00 00 00       	pushq  $0x14
  400ddb:	e9 a0 fe ff ff       	jmpq   400c80 <_init+0x20>

0000000000400de0 <random@plt>:
  400de0:	ff 25 da 32 20 00    	jmpq   *0x2032da(%rip)        # 6040c0 <_GLOBAL_OFFSET_TABLE_+0xc0>
  400de6:	68 15 00 00 00       	pushq  $0x15
  400deb:	e9 90 fe ff ff       	jmpq   400c80 <_init+0x20>

0000000000400df0 <_IO_getc@plt>:
  400df0:	ff 25 d2 32 20 00    	jmpq   *0x2032d2(%rip)        # 6040c8 <_GLOBAL_OFFSET_TABLE_+0xc8>
  400df6:	68 16 00 00 00       	pushq  $0x16
  400dfb:	e9 80 fe ff ff       	jmpq   400c80 <_init+0x20>

0000000000400e00 <__isoc99_sscanf@plt>:
  400e00:	ff 25 ca 32 20 00    	jmpq   *0x2032ca(%rip)        # 6040d0 <_GLOBAL_OFFSET_TABLE_+0xd0>
  400e06:	68 17 00 00 00       	pushq  $0x17
  400e0b:	e9 70 fe ff ff       	jmpq   400c80 <_init+0x20>

0000000000400e10 <munmap@plt>:
  400e10:	ff 25 c2 32 20 00    	jmpq   *0x2032c2(%rip)        # 6040d8 <_GLOBAL_OFFSET_TABLE_+0xd8>
  400e16:	68 18 00 00 00       	pushq  $0x18
  400e1b:	e9 60 fe ff ff       	jmpq   400c80 <_init+0x20>

0000000000400e20 <__printf_chk@plt>:
  400e20:	ff 25 ba 32 20 00    	jmpq   *0x2032ba(%rip)        # 6040e0 <_GLOBAL_OFFSET_TABLE_+0xe0>
  400e26:	68 19 00 00 00       	pushq  $0x19
  400e2b:	e9 50 fe ff ff       	jmpq   400c80 <_init+0x20>

0000000000400e30 <fopen@plt>:
  400e30:	ff 25 b2 32 20 00    	jmpq   *0x2032b2(%rip)        # 6040e8 <_GLOBAL_OFFSET_TABLE_+0xe8>
  400e36:	68 1a 00 00 00       	pushq  $0x1a
  400e3b:	e9 40 fe ff ff       	jmpq   400c80 <_init+0x20>

0000000000400e40 <getopt@plt>:
  400e40:	ff 25 aa 32 20 00    	jmpq   *0x2032aa(%rip)        # 6040f0 <_GLOBAL_OFFSET_TABLE_+0xf0>
  400e46:	68 1b 00 00 00       	pushq  $0x1b
  400e4b:	e9 30 fe ff ff       	jmpq   400c80 <_init+0x20>

0000000000400e50 <strtoul@plt>:
  400e50:	ff 25 a2 32 20 00    	jmpq   *0x2032a2(%rip)        # 6040f8 <_GLOBAL_OFFSET_TABLE_+0xf8>
  400e56:	68 1c 00 00 00       	pushq  $0x1c
  400e5b:	e9 20 fe ff ff       	jmpq   400c80 <_init+0x20>

0000000000400e60 <gethostname@plt>:
  400e60:	ff 25 9a 32 20 00    	jmpq   *0x20329a(%rip)        # 604100 <_GLOBAL_OFFSET_TABLE_+0x100>
  400e66:	68 1d 00 00 00       	pushq  $0x1d
  400e6b:	e9 10 fe ff ff       	jmpq   400c80 <_init+0x20>

0000000000400e70 <exit@plt>:
  400e70:	ff 25 92 32 20 00    	jmpq   *0x203292(%rip)        # 604108 <_GLOBAL_OFFSET_TABLE_+0x108>
  400e76:	68 1e 00 00 00       	pushq  $0x1e
  400e7b:	e9 00 fe ff ff       	jmpq   400c80 <_init+0x20>

0000000000400e80 <connect@plt>:
  400e80:	ff 25 8a 32 20 00    	jmpq   *0x20328a(%rip)        # 604110 <_GLOBAL_OFFSET_TABLE_+0x110>
  400e86:	68 1f 00 00 00       	pushq  $0x1f
  400e8b:	e9 f0 fd ff ff       	jmpq   400c80 <_init+0x20>

0000000000400e90 <__fprintf_chk@plt>:
  400e90:	ff 25 82 32 20 00    	jmpq   *0x203282(%rip)        # 604118 <_GLOBAL_OFFSET_TABLE_+0x118>
  400e96:	68 20 00 00 00       	pushq  $0x20
  400e9b:	e9 e0 fd ff ff       	jmpq   400c80 <_init+0x20>

0000000000400ea0 <__sprintf_chk@plt>:
  400ea0:	ff 25 7a 32 20 00    	jmpq   *0x20327a(%rip)        # 604120 <_GLOBAL_OFFSET_TABLE_+0x120>
  400ea6:	68 21 00 00 00       	pushq  $0x21
  400eab:	e9 d0 fd ff ff       	jmpq   400c80 <_init+0x20>

0000000000400eb0 <socket@plt>:
  400eb0:	ff 25 72 32 20 00    	jmpq   *0x203272(%rip)        # 604128 <_GLOBAL_OFFSET_TABLE_+0x128>
  400eb6:	68 22 00 00 00       	pushq  $0x22
  400ebb:	e9 c0 fd ff ff       	jmpq   400c80 <_init+0x20>

Disassembly of section .text:

0000000000400ec0 <_start>:
  400ec0:	31 ed                	xor    %ebp,%ebp
  400ec2:	49 89 d1             	mov    %rdx,%r9
  400ec5:	5e                   	pop    %rsi
  400ec6:	48 89 e2             	mov    %rsp,%rdx
  400ec9:	48 83 e4 f0          	and    $0xfffffffffffffff0,%rsp
  400ecd:	50                   	push   %rax
  400ece:	54                   	push   %rsp
  400ecf:	49 c7 c0 e0 2d 40 00 	mov    $0x402de0,%r8
  400ed6:	48 c7 c1 70 2d 40 00 	mov    $0x402d70,%rcx
  400edd:	48 c7 c7 c5 11 40 00 	mov    $0x4011c5,%rdi
  400ee4:	e8 77 fe ff ff       	callq  400d60 <__libc_start_main@plt>
  400ee9:	f4                   	hlt    
  400eea:	66 0f 1f 44 00 00    	nopw   0x0(%rax,%rax,1)

0000000000400ef0 <deregister_tm_clones>:
  400ef0:	b8 b7 44 60 00       	mov    $0x6044b7,%eax
  400ef5:	55                   	push   %rbp
  400ef6:	48 2d b0 44 60 00    	sub    $0x6044b0,%rax
  400efc:	48 83 f8 0e          	cmp    $0xe,%rax
  400f00:	48 89 e5             	mov    %rsp,%rbp
  400f03:	76 1b                	jbe    400f20 <deregister_tm_clones+0x30>
  400f05:	b8 00 00 00 00       	mov    $0x0,%eax
  400f0a:	48 85 c0             	test   %rax,%rax
  400f0d:	74 11                	je     400f20 <deregister_tm_clones+0x30>
  400f0f:	5d                   	pop    %rbp
  400f10:	bf b0 44 60 00       	mov    $0x6044b0,%edi
  400f15:	ff e0                	jmpq   *%rax
  400f17:	66 0f 1f 84 00 00 00 	nopw   0x0(%rax,%rax,1)
  400f1e:	00 00 
  400f20:	5d                   	pop    %rbp
  400f21:	c3                   	retq   
  400f22:	66 66 66 66 66 2e 0f 	data16 data16 data16 data16 nopw %cs:0x0(%rax,%rax,1)
  400f29:	1f 84 00 00 00 00 00 

0000000000400f30 <register_tm_clones>:
  400f30:	be b0 44 60 00       	mov    $0x6044b0,%esi
  400f35:	55                   	push   %rbp
  400f36:	48 81 ee b0 44 60 00 	sub    $0x6044b0,%rsi
  400f3d:	48 c1 fe 03          	sar    $0x3,%rsi
  400f41:	48 89 e5             	mov    %rsp,%rbp
  400f44:	48 89 f0             	mov    %rsi,%rax
  400f47:	48 c1 e8 3f          	shr    $0x3f,%rax
  400f4b:	48 01 c6             	add    %rax,%rsi
  400f4e:	48 d1 fe             	sar    %rsi
  400f51:	74 15                	je     400f68 <register_tm_clones+0x38>
  400f53:	b8 00 00 00 00       	mov    $0x0,%eax
  400f58:	48 85 c0             	test   %rax,%rax
  400f5b:	74 0b                	je     400f68 <register_tm_clones+0x38>
  400f5d:	5d                   	pop    %rbp
  400f5e:	bf b0 44 60 00       	mov    $0x6044b0,%edi
  400f63:	ff e0                	jmpq   *%rax
  400f65:	0f 1f 00             	nopl   (%rax)
  400f68:	5d                   	pop    %rbp
  400f69:	c3                   	retq   
  400f6a:	66 0f 1f 44 00 00    	nopw   0x0(%rax,%rax,1)

0000000000400f70 <__do_global_dtors_aux>:
  400f70:	80 3d 79 35 20 00 00 	cmpb   $0x0,0x203579(%rip)        # 6044f0 <completed.7545>
  400f77:	75 11                	jne    400f8a <__do_global_dtors_aux+0x1a>
  400f79:	55                   	push   %rbp
  400f7a:	48 89 e5             	mov    %rsp,%rbp
  400f7d:	e8 6e ff ff ff       	callq  400ef0 <deregister_tm_clones>
  400f82:	5d                   	pop    %rbp
  400f83:	c6 05 66 35 20 00 01 	movb   $0x1,0x203566(%rip)        # 6044f0 <completed.7545>
  400f8a:	f3 c3                	repz retq 
  400f8c:	0f 1f 40 00          	nopl   0x0(%rax)

0000000000400f90 <frame_dummy>:
  400f90:	bf 20 3e 60 00       	mov    $0x603e20,%edi
  400f95:	48 83 3f 00          	cmpq   $0x0,(%rdi)
  400f99:	75 05                	jne    400fa0 <frame_dummy+0x10>
  400f9b:	eb 93                	jmp    400f30 <register_tm_clones>
  400f9d:	0f 1f 00             	nopl   (%rax)
  400fa0:	b8 00 00 00 00       	mov    $0x0,%eax
  400fa5:	48 85 c0             	test   %rax,%rax
  400fa8:	74 f1                	je     400f9b <frame_dummy+0xb>
  400faa:	55                   	push   %rbp
  400fab:	48 89 e5             	mov    %rsp,%rbp
  400fae:	ff d0                	callq  *%rax
  400fb0:	5d                   	pop    %rbp
  400fb1:	e9 7a ff ff ff       	jmpq   400f30 <register_tm_clones>

0000000000400fb6 <usage>:
  400fb6:	48 83 ec 08          	sub    $0x8,%rsp
  400fba:	48 89 fa             	mov    %rdi,%rdx
  400fbd:	83 3d 64 35 20 00 00 	cmpl   $0x0,0x203564(%rip)        # 604528 <is_checker>
  400fc4:	74 3e                	je     401004 <usage+0x4e>
  400fc6:	be f8 2d 40 00       	mov    $0x402df8,%esi
  400fcb:	bf 01 00 00 00       	mov    $0x1,%edi
  400fd0:	b8 00 00 00 00       	mov    $0x0,%eax
  400fd5:	e8 46 fe ff ff       	callq  400e20 <__printf_chk@plt>
  400fda:	bf 30 2e 40 00       	mov    $0x402e30,%edi
  400fdf:	e8 fc fc ff ff       	callq  400ce0 <puts@plt>
  400fe4:	bf a8 2f 40 00       	mov    $0x402fa8,%edi
  400fe9:	e8 f2 fc ff ff       	callq  400ce0 <puts@plt>
  400fee:	bf 58 2e 40 00       	mov    $0x402e58,%edi
  400ff3:	e8 e8 fc ff ff       	callq  400ce0 <puts@plt>
  400ff8:	bf c2 2f 40 00       	mov    $0x402fc2,%edi
  400ffd:	e8 de fc ff ff       	callq  400ce0 <puts@plt>
  401002:	eb 32                	jmp    401036 <usage+0x80>
  401004:	be de 2f 40 00       	mov    $0x402fde,%esi
  401009:	bf 01 00 00 00       	mov    $0x1,%edi
  40100e:	b8 00 00 00 00       	mov    $0x0,%eax
  401013:	e8 08 fe ff ff       	callq  400e20 <__printf_chk@plt>
  401018:	bf 80 2e 40 00       	mov    $0x402e80,%edi
  40101d:	e8 be fc ff ff       	callq  400ce0 <puts@plt>
  401022:	bf a8 2e 40 00       	mov    $0x402ea8,%edi
  401027:	e8 b4 fc ff ff       	callq  400ce0 <puts@plt>
  40102c:	bf fc 2f 40 00       	mov    $0x402ffc,%edi
  401031:	e8 aa fc ff ff       	callq  400ce0 <puts@plt>
  401036:	bf 00 00 00 00       	mov    $0x0,%edi
  40103b:	e8 30 fe ff ff       	callq  400e70 <exit@plt>

0000000000401040 <initialize_target>:
  401040:	55                   	push   %rbp
  401041:	53                   	push   %rbx
  401042:	48 81 ec 18 21 00 00 	sub    $0x2118,%rsp
  401049:	89 f5                	mov    %esi,%ebp
  40104b:	64 48 8b 04 25 28 00 	mov    %fs:0x28,%rax
  401052:	00 00 
  401054:	48 89 84 24 08 21 00 	mov    %rax,0x2108(%rsp)
  40105b:	00 
  40105c:	31 c0                	xor    %eax,%eax
  40105e:	89 3d b4 34 20 00    	mov    %edi,0x2034b4(%rip)        # 604518 <check_level>
  401064:	8b 3d fe 30 20 00    	mov    0x2030fe(%rip),%edi        # 604168 <target_id>
  40106a:	e8 dd 1c 00 00       	callq  402d4c <gencookie>
  40106f:	89 05 af 34 20 00    	mov    %eax,0x2034af(%rip)        # 604524 <cookie>
  401075:	89 c7                	mov    %eax,%edi
  401077:	e8 d0 1c 00 00       	callq  402d4c <gencookie>
  40107c:	89 05 9e 34 20 00    	mov    %eax,0x20349e(%rip)        # 604520 <authkey>
  401082:	8b 05 e0 30 20 00    	mov    0x2030e0(%rip),%eax        # 604168 <target_id>
  401088:	8d 78 01             	lea    0x1(%rax),%edi
  40108b:	e8 20 fc ff ff       	callq  400cb0 <srandom@plt>
  401090:	e8 4b fd ff ff       	callq  400de0 <random@plt>
  401095:	89 c7                	mov    %eax,%edi
  401097:	e8 03 03 00 00       	callq  40139f <scramble>
  40109c:	89 c3                	mov    %eax,%ebx
  40109e:	85 ed                	test   %ebp,%ebp
  4010a0:	74 18                	je     4010ba <initialize_target+0x7a>
  4010a2:	bf 00 00 00 00       	mov    $0x0,%edi
  4010a7:	e8 24 fd ff ff       	callq  400dd0 <time@plt>
  4010ac:	89 c7                	mov    %eax,%edi
  4010ae:	e8 fd fb ff ff       	callq  400cb0 <srandom@plt>
  4010b3:	e8 28 fd ff ff       	callq  400de0 <random@plt>
  4010b8:	eb 05                	jmp    4010bf <initialize_target+0x7f>
  4010ba:	b8 00 00 00 00       	mov    $0x0,%eax
  4010bf:	01 c3                	add    %eax,%ebx
  4010c1:	0f b7 db             	movzwl %bx,%ebx
  4010c4:	8d 04 dd 00 01 00 00 	lea    0x100(,%rbx,8),%eax
  4010cb:	89 c0                	mov    %eax,%eax
  4010cd:	48 89 05 cc 33 20 00 	mov    %rax,0x2033cc(%rip)        # 6044a0 <buf_offset>
  4010d4:	c6 05 6d 40 20 00 63 	movb   $0x63,0x20406d(%rip)        # 605148 <target_prefix>
  4010db:	83 3d c6 33 20 00 00 	cmpl   $0x0,0x2033c6(%rip)        # 6044a8 <notify>
  4010e2:	0f 84 bb 00 00 00    	je     4011a3 <initialize_target+0x163>
  4010e8:	83 3d 39 34 20 00 00 	cmpl   $0x0,0x203439(%rip)        # 604528 <is_checker>
  4010ef:	0f 85 ae 00 00 00    	jne    4011a3 <initialize_target+0x163>
  4010f5:	be 00 01 00 00       	mov    $0x100,%esi
  4010fa:	48 89 e7             	mov    %rsp,%rdi
  4010fd:	e8 5e fd ff ff       	callq  400e60 <gethostname@plt>
  401102:	85 c0                	test   %eax,%eax
  401104:	74 25                	je     40112b <initialize_target+0xeb>
  401106:	bf d8 2e 40 00       	mov    $0x402ed8,%edi
  40110b:	e8 d0 fb ff ff       	callq  400ce0 <puts@plt>
  401110:	bf 08 00 00 00       	mov    $0x8,%edi
  401115:	e8 56 fd ff ff       	callq  400e70 <exit@plt>
  40111a:	48 89 e6             	mov    %rsp,%rsi
  40111d:	e8 6e fb ff ff       	callq  400c90 <strcasecmp@plt>
  401122:	85 c0                	test   %eax,%eax
  401124:	74 21                	je     401147 <initialize_target+0x107>
  401126:	83 c3 01             	add    $0x1,%ebx
  401129:	eb 05                	jmp    401130 <initialize_target+0xf0>
  40112b:	bb 00 00 00 00       	mov    $0x0,%ebx
  401130:	48 63 c3             	movslq %ebx,%rax
  401133:	48 8b 3c c5 80 41 60 	mov    0x604180(,%rax,8),%rdi
  40113a:	00 
  40113b:	48 85 ff             	test   %rdi,%rdi
  40113e:	75 da                	jne    40111a <initialize_target+0xda>
  401140:	b8 00 00 00 00       	mov    $0x0,%eax
  401145:	eb 05                	jmp    40114c <initialize_target+0x10c>
  401147:	b8 01 00 00 00       	mov    $0x1,%eax
  40114c:	85 c0                	test   %eax,%eax
  40114e:	75 1c                	jne    40116c <initialize_target+0x12c>
  401150:	48 89 e2             	mov    %rsp,%rdx
  401153:	be 10 2f 40 00       	mov    $0x402f10,%esi
  401158:	bf 01 00 00 00       	mov    $0x1,%edi
  40115d:	e8 be fc ff ff       	callq  400e20 <__printf_chk@plt>
  401162:	bf 08 00 00 00       	mov    $0x8,%edi
  401167:	e8 04 fd ff ff       	callq  400e70 <exit@plt>
  40116c:	48 8d bc 24 00 01 00 	lea    0x100(%rsp),%rdi
  401173:	00 
  401174:	e8 3d 19 00 00       	callq  402ab6 <init_driver>
  401179:	85 c0                	test   %eax,%eax
  40117b:	79 26                	jns    4011a3 <initialize_target+0x163>
  40117d:	48 8d 94 24 00 01 00 	lea    0x100(%rsp),%rdx
  401184:	00 
  401185:	be 50 2f 40 00       	mov    $0x402f50,%esi
  40118a:	bf 01 00 00 00       	mov    $0x1,%edi
  40118f:	b8 00 00 00 00       	mov    $0x0,%eax
  401194:	e8 87 fc ff ff       	callq  400e20 <__printf_chk@plt>
  401199:	bf 08 00 00 00       	mov    $0x8,%edi
  40119e:	e8 cd fc ff ff       	callq  400e70 <exit@plt>
  4011a3:	48 8b 84 24 08 21 00 	mov    0x2108(%rsp),%rax
  4011aa:	00 
  4011ab:	64 48 33 04 25 28 00 	xor    %fs:0x28,%rax
  4011b2:	00 00 
  4011b4:	74 05                	je     4011bb <initialize_target+0x17b>
  4011b6:	e8 45 fb ff ff       	callq  400d00 <__stack_chk_fail@plt>
  4011bb:	48 81 c4 18 21 00 00 	add    $0x2118,%rsp
  4011c2:	5b                   	pop    %rbx
  4011c3:	5d                   	pop    %rbp
  4011c4:	c3                   	retq   

00000000004011c5 <main>:
  4011c5:	41 56                	push   %r14
  4011c7:	41 55                	push   %r13
  4011c9:	41 54                	push   %r12
  4011cb:	55                   	push   %rbp
  4011cc:	53                   	push   %rbx
  4011cd:	41 89 fc             	mov    %edi,%r12d
  4011d0:	48 89 f3             	mov    %rsi,%rbx
  4011d3:	be 25 1e 40 00       	mov    $0x401e25,%esi
  4011d8:	bf 0b 00 00 00       	mov    $0xb,%edi
  4011dd:	e8 8e fb ff ff       	callq  400d70 <signal@plt>
  4011e2:	be d7 1d 40 00       	mov    $0x401dd7,%esi
  4011e7:	bf 07 00 00 00       	mov    $0x7,%edi
  4011ec:	e8 7f fb ff ff       	callq  400d70 <signal@plt>
  4011f1:	be 73 1e 40 00       	mov    $0x401e73,%esi
  4011f6:	bf 04 00 00 00       	mov    $0x4,%edi
  4011fb:	e8 70 fb ff ff       	callq  400d70 <signal@plt>
  401200:	83 3d 21 33 20 00 00 	cmpl   $0x0,0x203321(%rip)        # 604528 <is_checker>
  401207:	74 20                	je     401229 <main+0x64>
  401209:	be c1 1e 40 00       	mov    $0x401ec1,%esi
  40120e:	bf 0e 00 00 00       	mov    $0xe,%edi
  401213:	e8 58 fb ff ff       	callq  400d70 <signal@plt>
  401218:	bf 05 00 00 00       	mov    $0x5,%edi
  40121d:	e8 0e fb ff ff       	callq  400d30 <alarm@plt>
  401222:	bd 1a 30 40 00       	mov    $0x40301a,%ebp
  401227:	eb 05                	jmp    40122e <main+0x69>
  401229:	bd 15 30 40 00       	mov    $0x403015,%ebp
  40122e:	48 8b 05 8b 32 20 00 	mov    0x20328b(%rip),%rax        # 6044c0 <stdin@@GLIBC_2.2.5>
  401235:	48 89 05 d4 32 20 00 	mov    %rax,0x2032d4(%rip)        # 604510 <infile>
  40123c:	41 bd 00 00 00 00    	mov    $0x0,%r13d
  401242:	41 be 00 00 00 00    	mov    $0x0,%r14d
  401248:	e9 c6 00 00 00       	jmpq   401313 <main+0x14e>
  40124d:	83 e8 61             	sub    $0x61,%eax
  401250:	3c 10                	cmp    $0x10,%al
  401252:	0f 87 9c 00 00 00    	ja     4012f4 <main+0x12f>
  401258:	0f b6 c0             	movzbl %al,%eax
  40125b:	ff 24 c5 60 30 40 00 	jmpq   *0x403060(,%rax,8)
  401262:	48 8b 3b             	mov    (%rbx),%rdi
  401265:	e8 4c fd ff ff       	callq  400fb6 <usage>
  40126a:	be cd 32 40 00       	mov    $0x4032cd,%esi
  40126f:	48 8b 3d 6a 32 20 00 	mov    0x20326a(%rip),%rdi        # 6044e0 <optarg@@GLIBC_2.2.5>
  401276:	e8 b5 fb ff ff       	callq  400e30 <fopen@plt>
  40127b:	48 89 05 8e 32 20 00 	mov    %rax,0x20328e(%rip)        # 604510 <infile>
  401282:	48 85 c0             	test   %rax,%rax
  401285:	0f 85 88 00 00 00    	jne    401313 <main+0x14e>
  40128b:	48 8b 0d 4e 32 20 00 	mov    0x20324e(%rip),%rcx        # 6044e0 <optarg@@GLIBC_2.2.5>
  401292:	ba 22 30 40 00       	mov    $0x403022,%edx
  401297:	be 01 00 00 00       	mov    $0x1,%esi
  40129c:	48 8b 3d 45 32 20 00 	mov    0x203245(%rip),%rdi        # 6044e8 <stderr@@GLIBC_2.2.5>
  4012a3:	e8 e8 fb ff ff       	callq  400e90 <__fprintf_chk@plt>
  4012a8:	b8 01 00 00 00       	mov    $0x1,%eax
  4012ad:	e9 e4 00 00 00       	jmpq   401396 <main+0x1d1>
  4012b2:	ba 10 00 00 00       	mov    $0x10,%edx
  4012b7:	be 00 00 00 00       	mov    $0x0,%esi
  4012bc:	48 8b 3d 1d 32 20 00 	mov    0x20321d(%rip),%rdi        # 6044e0 <optarg@@GLIBC_2.2.5>
  4012c3:	e8 88 fb ff ff       	callq  400e50 <strtoul@plt>
  4012c8:	41 89 c6             	mov    %eax,%r14d
  4012cb:	eb 46                	jmp    401313 <main+0x14e>
  4012cd:	ba 0a 00 00 00       	mov    $0xa,%edx
  4012d2:	be 00 00 00 00       	mov    $0x0,%esi
  4012d7:	48 8b 3d 02 32 20 00 	mov    0x203202(%rip),%rdi        # 6044e0 <optarg@@GLIBC_2.2.5>
  4012de:	e8 cd fa ff ff       	callq  400db0 <strtol@plt>
  4012e3:	41 89 c5             	mov    %eax,%r13d
  4012e6:	eb 2b                	jmp    401313 <main+0x14e>
  4012e8:	c7 05 b6 31 20 00 00 	movl   $0x0,0x2031b6(%rip)        # 6044a8 <notify>
  4012ef:	00 00 00 
  4012f2:	eb 1f                	jmp    401313 <main+0x14e>
  4012f4:	0f be d2             	movsbl %dl,%edx
  4012f7:	be 3f 30 40 00       	mov    $0x40303f,%esi
  4012fc:	bf 01 00 00 00       	mov    $0x1,%edi
  401301:	b8 00 00 00 00       	mov    $0x0,%eax
  401306:	e8 15 fb ff ff       	callq  400e20 <__printf_chk@plt>
  40130b:	48 8b 3b             	mov    (%rbx),%rdi
  40130e:	e8 a3 fc ff ff       	callq  400fb6 <usage>
  401313:	48 89 ea             	mov    %rbp,%rdx
  401316:	48 89 de             	mov    %rbx,%rsi
  401319:	44 89 e7             	mov    %r12d,%edi
  40131c:	e8 1f fb ff ff       	callq  400e40 <getopt@plt>
  401321:	89 c2                	mov    %eax,%edx
  401323:	3c ff                	cmp    $0xff,%al
  401325:	0f 85 22 ff ff ff    	jne    40124d <main+0x88>
  40132b:	be 00 00 00 00       	mov    $0x0,%esi
  401330:	44 89 ef             	mov    %r13d,%edi
  401333:	e8 08 fd ff ff       	callq  401040 <initialize_target>
  401338:	83 3d e9 31 20 00 00 	cmpl   $0x0,0x2031e9(%rip)        # 604528 <is_checker>
  40133f:	74 2a                	je     40136b <main+0x1a6>
  401341:	44 3b 35 d8 31 20 00 	cmp    0x2031d8(%rip),%r14d        # 604520 <authkey>
  401348:	74 21                	je     40136b <main+0x1a6>
  40134a:	44 89 f2             	mov    %r14d,%edx
  40134d:	be 78 2f 40 00       	mov    $0x402f78,%esi
  401352:	bf 01 00 00 00       	mov    $0x1,%edi
  401357:	b8 00 00 00 00       	mov    $0x0,%eax
  40135c:	e8 bf fa ff ff       	callq  400e20 <__printf_chk@plt>
  401361:	b8 00 00 00 00       	mov    $0x0,%eax
  401366:	e8 08 07 00 00       	callq  401a73 <check_fail>
  40136b:	8b 15 b3 31 20 00    	mov    0x2031b3(%rip),%edx        # 604524 <cookie>
  401371:	be 52 30 40 00       	mov    $0x403052,%esi
  401376:	bf 01 00 00 00       	mov    $0x1,%edi
  40137b:	b8 00 00 00 00       	mov    $0x0,%eax
  401380:	e8 9b fa ff ff       	callq  400e20 <__printf_chk@plt>
  401385:	48 8b 3d 14 31 20 00 	mov    0x203114(%rip),%rdi        # 6044a0 <buf_offset>
  40138c:	e8 30 0c 00 00       	callq  401fc1 <stable_launch>
  401391:	b8 00 00 00 00       	mov    $0x0,%eax
  401396:	5b                   	pop    %rbx
  401397:	5d                   	pop    %rbp
  401398:	41 5c                	pop    %r12
  40139a:	41 5d                	pop    %r13
  40139c:	41 5e                	pop    %r14
  40139e:	c3                   	retq   

000000000040139f <scramble>:
  40139f:	b8 00 00 00 00       	mov    $0x0,%eax
  4013a4:	eb 11                	jmp    4013b7 <scramble+0x18>
  4013a6:	69 d0 63 2b 00 00    	imul   $0x2b63,%eax,%edx
  4013ac:	01 fa                	add    %edi,%edx
  4013ae:	89 c1                	mov    %eax,%ecx
  4013b0:	89 54 8c c8          	mov    %edx,-0x38(%rsp,%rcx,4)
  4013b4:	83 c0 01             	add    $0x1,%eax
  4013b7:	83 f8 09             	cmp    $0x9,%eax
  4013ba:	76 ea                	jbe    4013a6 <scramble+0x7>
  4013bc:	8b 44 24 dc          	mov    -0x24(%rsp),%eax
  4013c0:	69 c0 f5 40 00 00    	imul   $0x40f5,%eax,%eax
  4013c6:	89 44 24 dc          	mov    %eax,-0x24(%rsp)
  4013ca:	8b 44 24 d4          	mov    -0x2c(%rsp),%eax
  4013ce:	69 c0 de c2 00 00    	imul   $0xc2de,%eax,%eax
  4013d4:	89 44 24 d4          	mov    %eax,-0x2c(%rsp)
  4013d8:	8b 44 24 e8          	mov    -0x18(%rsp),%eax
  4013dc:	69 c0 56 5e 00 00    	imul   $0x5e56,%eax,%eax
  4013e2:	89 44 24 e8          	mov    %eax,-0x18(%rsp)
  4013e6:	8b 44 24 cc          	mov    -0x34(%rsp),%eax
  4013ea:	69 c0 52 4d 00 00    	imul   $0x4d52,%eax,%eax
  4013f0:	89 44 24 cc          	mov    %eax,-0x34(%rsp)
  4013f4:	8b 44 24 e8          	mov    -0x18(%rsp),%eax
  4013f8:	69 c0 50 85 00 00    	imul   $0x8550,%eax,%eax
  4013fe:	89 44 24 e8          	mov    %eax,-0x18(%rsp)
  401402:	8b 44 24 d8          	mov    -0x28(%rsp),%eax
  401406:	69 c0 8e 2a 00 00    	imul   $0x2a8e,%eax,%eax
  40140c:	89 44 24 d8          	mov    %eax,-0x28(%rsp)
  401410:	8b 44 24 d8          	mov    -0x28(%rsp),%eax
  401414:	69 c0 f8 6d 00 00    	imul   $0x6df8,%eax,%eax
  40141a:	89 44 24 d8          	mov    %eax,-0x28(%rsp)
  40141e:	8b 44 24 c8          	mov    -0x38(%rsp),%eax
  401422:	69 c0 2d 4c 00 00    	imul   $0x4c2d,%eax,%eax
  401428:	89 44 24 c8          	mov    %eax,-0x38(%rsp)
  40142c:	8b 44 24 dc          	mov    -0x24(%rsp),%eax
  401430:	69 c0 35 6f 00 00    	imul   $0x6f35,%eax,%eax
  401436:	89 44 24 dc          	mov    %eax,-0x24(%rsp)
  40143a:	8b 44 24 d0          	mov    -0x30(%rsp),%eax
  40143e:	69 c0 0c 05 00 00    	imul   $0x50c,%eax,%eax
  401444:	89 44 24 d0          	mov    %eax,-0x30(%rsp)
  401448:	8b 44 24 ec          	mov    -0x14(%rsp),%eax
  40144c:	69 c0 69 b2 00 00    	imul   $0xb269,%eax,%eax
  401452:	89 44 24 ec          	mov    %eax,-0x14(%rsp)
  401456:	8b 44 24 cc          	mov    -0x34(%rsp),%eax
  40145a:	69 c0 a6 e3 00 00    	imul   $0xe3a6,%eax,%eax
  401460:	89 44 24 cc          	mov    %eax,-0x34(%rsp)
  401464:	8b 44 24 d0          	mov    -0x30(%rsp),%eax
  401468:	69 c0 4a 12 00 00    	imul   $0x124a,%eax,%eax
  40146e:	89 44 24 d0          	mov    %eax,-0x30(%rsp)
  401472:	8b 44 24 e8          	mov    -0x18(%rsp),%eax
  401476:	69 c0 b0 66 00 00    	imul   $0x66b0,%eax,%eax
  40147c:	89 44 24 e8          	mov    %eax,-0x18(%rsp)
  401480:	8b 44 24 dc          	mov    -0x24(%rsp),%eax
  401484:	69 c0 4c e4 00 00    	imul   $0xe44c,%eax,%eax
  40148a:	89 44 24 dc          	mov    %eax,-0x24(%rsp)
  40148e:	8b 44 24 e8          	mov    -0x18(%rsp),%eax
  401492:	69 c0 09 be 00 00    	imul   $0xbe09,%eax,%eax
  401498:	89 44 24 e8          	mov    %eax,-0x18(%rsp)
  40149c:	8b 44 24 d4          	mov    -0x2c(%rsp),%eax
  4014a0:	69 c0 01 1d 00 00    	imul   $0x1d01,%eax,%eax
  4014a6:	89 44 24 d4          	mov    %eax,-0x2c(%rsp)
  4014aa:	8b 44 24 dc          	mov    -0x24(%rsp),%eax
  4014ae:	69 c0 35 22 00 00    	imul   $0x2235,%eax,%eax
  4014b4:	89 44 24 dc          	mov    %eax,-0x24(%rsp)
  4014b8:	8b 44 24 d4          	mov    -0x2c(%rsp),%eax
  4014bc:	69 c0 63 b4 00 00    	imul   $0xb463,%eax,%eax
  4014c2:	89 44 24 d4          	mov    %eax,-0x2c(%rsp)
  4014c6:	8b 44 24 d0          	mov    -0x30(%rsp),%eax
  4014ca:	69 c0 b6 51 00 00    	imul   $0x51b6,%eax,%eax
  4014d0:	89 44 24 d0          	mov    %eax,-0x30(%rsp)
  4014d4:	8b 44 24 d0          	mov    -0x30(%rsp),%eax
  4014d8:	69 c0 ee 04 00 00    	imul   $0x4ee,%eax,%eax
  4014de:	89 44 24 d0          	mov    %eax,-0x30(%rsp)
  4014e2:	8b 44 24 d0          	mov    -0x30(%rsp),%eax
  4014e6:	69 c0 ae ec 00 00    	imul   $0xecae,%eax,%eax
  4014ec:	89 44 24 d0          	mov    %eax,-0x30(%rsp)
  4014f0:	8b 44 24 ec          	mov    -0x14(%rsp),%eax
  4014f4:	69 c0 dc 85 00 00    	imul   $0x85dc,%eax,%eax
  4014fa:	89 44 24 ec          	mov    %eax,-0x14(%rsp)
  4014fe:	8b 44 24 e0          	mov    -0x20(%rsp),%eax
  401502:	69 c0 5e 75 00 00    	imul   $0x755e,%eax,%eax
  401508:	89 44 24 e0          	mov    %eax,-0x20(%rsp)
  40150c:	8b 44 24 e0          	mov    -0x20(%rsp),%eax
  401510:	69 c0 7b d2 00 00    	imul   $0xd27b,%eax,%eax
  401516:	89 44 24 e0          	mov    %eax,-0x20(%rsp)
  40151a:	8b 44 24 c8          	mov    -0x38(%rsp),%eax
  40151e:	69 c0 72 75 00 00    	imul   $0x7572,%eax,%eax
  401524:	89 44 24 c8          	mov    %eax,-0x38(%rsp)
  401528:	8b 44 24 e8          	mov    -0x18(%rsp),%eax
  40152c:	69 c0 d8 93 00 00    	imul   $0x93d8,%eax,%eax
  401532:	89 44 24 e8          	mov    %eax,-0x18(%rsp)
  401536:	8b 44 24 e8          	mov    -0x18(%rsp),%eax
  40153a:	69 c0 68 6c 00 00    	imul   $0x6c68,%eax,%eax
  401540:	89 44 24 e8          	mov    %eax,-0x18(%rsp)
  401544:	8b 44 24 d0          	mov    -0x30(%rsp),%eax
  401548:	69 c0 d0 62 00 00    	imul   $0x62d0,%eax,%eax
  40154e:	89 44 24 d0          	mov    %eax,-0x30(%rsp)
  401552:	8b 44 24 d4          	mov    -0x2c(%rsp),%eax
  401556:	69 c0 c8 38 00 00    	imul   $0x38c8,%eax,%eax
  40155c:	89 44 24 d4          	mov    %eax,-0x2c(%rsp)
  401560:	8b 44 24 d4          	mov    -0x2c(%rsp),%eax
  401564:	69 c0 19 bc 00 00    	imul   $0xbc19,%eax,%eax
  40156a:	89 44 24 d4          	mov    %eax,-0x2c(%rsp)
  40156e:	8b 44 24 d0          	mov    -0x30(%rsp),%eax
  401572:	69 c0 5f 6c 00 00    	imul   $0x6c5f,%eax,%eax
  401578:	89 44 24 d0          	mov    %eax,-0x30(%rsp)
  40157c:	8b 44 24 e0          	mov    -0x20(%rsp),%eax
  401580:	69 c0 b8 77 00 00    	imul   $0x77b8,%eax,%eax
  401586:	89 44 24 e0          	mov    %eax,-0x20(%rsp)
  40158a:	8b 44 24 e8          	mov    -0x18(%rsp),%eax
  40158e:	69 c0 71 54 00 00    	imul   $0x5471,%eax,%eax
  401594:	89 44 24 e8          	mov    %eax,-0x18(%rsp)
  401598:	8b 44 24 e4          	mov    -0x1c(%rsp),%eax
  40159c:	69 c0 1c fe 00 00    	imul   $0xfe1c,%eax,%eax
  4015a2:	89 44 24 e4          	mov    %eax,-0x1c(%rsp)
  4015a6:	8b 44 24 d0          	mov    -0x30(%rsp),%eax
  4015aa:	69 c0 d0 65 00 00    	imul   $0x65d0,%eax,%eax
  4015b0:	89 44 24 d0          	mov    %eax,-0x30(%rsp)
  4015b4:	8b 44 24 e8          	mov    -0x18(%rsp),%eax
  4015b8:	69 c0 6b 22 00 00    	imul   $0x226b,%eax,%eax
  4015be:	89 44 24 e8          	mov    %eax,-0x18(%rsp)
  4015c2:	8b 44 24 e0          	mov    -0x20(%rsp),%eax
  4015c6:	69 c0 f0 75 00 00    	imul   $0x75f0,%eax,%eax
  4015cc:	89 44 24 e0          	mov    %eax,-0x20(%rsp)
  4015d0:	8b 44 24 d0          	mov    -0x30(%rsp),%eax
  4015d4:	69 c0 5a 8b 00 00    	imul   $0x8b5a,%eax,%eax
  4015da:	89 44 24 d0          	mov    %eax,-0x30(%rsp)
  4015de:	8b 44 24 e4          	mov    -0x1c(%rsp),%eax
  4015e2:	69 c0 5a 9d 00 00    	imul   $0x9d5a,%eax,%eax
  4015e8:	89 44 24 e4          	mov    %eax,-0x1c(%rsp)
  4015ec:	8b 44 24 e0          	mov    -0x20(%rsp),%eax
  4015f0:	69 c0 b8 65 00 00    	imul   $0x65b8,%eax,%eax
  4015f6:	89 44 24 e0          	mov    %eax,-0x20(%rsp)
  4015fa:	8b 44 24 e8          	mov    -0x18(%rsp),%eax
  4015fe:	69 c0 b9 e2 00 00    	imul   $0xe2b9,%eax,%eax
  401604:	89 44 24 e8          	mov    %eax,-0x18(%rsp)
  401608:	8b 44 24 cc          	mov    -0x34(%rsp),%eax
  40160c:	69 c0 e4 6b 00 00    	imul   $0x6be4,%eax,%eax
  401612:	89 44 24 cc          	mov    %eax,-0x34(%rsp)
  401616:	8b 44 24 e0          	mov    -0x20(%rsp),%eax
  40161a:	69 c0 b3 9f 00 00    	imul   $0x9fb3,%eax,%eax
  401620:	89 44 24 e0          	mov    %eax,-0x20(%rsp)
  401624:	8b 44 24 e4          	mov    -0x1c(%rsp),%eax
  401628:	69 c0 39 22 00 00    	imul   $0x2239,%eax,%eax
  40162e:	89 44 24 e4          	mov    %eax,-0x1c(%rsp)
  401632:	8b 44 24 d4          	mov    -0x2c(%rsp),%eax
  401636:	69 c0 d1 15 00 00    	imul   $0x15d1,%eax,%eax
  40163c:	89 44 24 d4          	mov    %eax,-0x2c(%rsp)
  401640:	8b 44 24 d8          	mov    -0x28(%rsp),%eax
  401644:	69 c0 4d cf 00 00    	imul   $0xcf4d,%eax,%eax
  40164a:	89 44 24 d8          	mov    %eax,-0x28(%rsp)
  40164e:	8b 44 24 e4          	mov    -0x1c(%rsp),%eax
  401652:	69 c0 6d b7 00 00    	imul   $0xb76d,%eax,%eax
  401658:	89 44 24 e4          	mov    %eax,-0x1c(%rsp)
  40165c:	8b 44 24 dc          	mov    -0x24(%rsp),%eax
  401660:	69 c0 c5 10 00 00    	imul   $0x10c5,%eax,%eax
  401666:	89 44 24 dc          	mov    %eax,-0x24(%rsp)
  40166a:	8b 44 24 cc          	mov    -0x34(%rsp),%eax
  40166e:	69 c0 21 73 00 00    	imul   $0x7321,%eax,%eax
  401674:	89 44 24 cc          	mov    %eax,-0x34(%rsp)
  401678:	8b 44 24 e4          	mov    -0x1c(%rsp),%eax
  40167c:	69 c0 06 b2 00 00    	imul   $0xb206,%eax,%eax
  401682:	89 44 24 e4          	mov    %eax,-0x1c(%rsp)
  401686:	8b 44 24 d0          	mov    -0x30(%rsp),%eax
  40168a:	69 c0 eb 11 00 00    	imul   $0x11eb,%eax,%eax
  401690:	89 44 24 d0          	mov    %eax,-0x30(%rsp)
  401694:	8b 44 24 d4          	mov    -0x2c(%rsp),%eax
  401698:	69 c0 70 2b 00 00    	imul   $0x2b70,%eax,%eax
  40169e:	89 44 24 d4          	mov    %eax,-0x2c(%rsp)
  4016a2:	8b 44 24 e8          	mov    -0x18(%rsp),%eax
  4016a6:	69 c0 ba 7c 00 00    	imul   $0x7cba,%eax,%eax
  4016ac:	89 44 24 e8          	mov    %eax,-0x18(%rsp)
  4016b0:	8b 44 24 d8          	mov    -0x28(%rsp),%eax
  4016b4:	69 c0 29 73 00 00    	imul   $0x7329,%eax,%eax
  4016ba:	89 44 24 d8          	mov    %eax,-0x28(%rsp)
  4016be:	8b 44 24 e4          	mov    -0x1c(%rsp),%eax
  4016c2:	69 c0 9f 14 00 00    	imul   $0x149f,%eax,%eax
  4016c8:	89 44 24 e4          	mov    %eax,-0x1c(%rsp)
  4016cc:	8b 44 24 d8          	mov    -0x28(%rsp),%eax
  4016d0:	69 c0 e0 2c 00 00    	imul   $0x2ce0,%eax,%eax
  4016d6:	89 44 24 d8          	mov    %eax,-0x28(%rsp)
  4016da:	8b 44 24 e0          	mov    -0x20(%rsp),%eax
  4016de:	69 c0 72 d2 00 00    	imul   $0xd272,%eax,%eax
  4016e4:	89 44 24 e0          	mov    %eax,-0x20(%rsp)
  4016e8:	8b 44 24 e4          	mov    -0x1c(%rsp),%eax
  4016ec:	69 c0 7a 46 00 00    	imul   $0x467a,%eax,%eax
  4016f2:	89 44 24 e4          	mov    %eax,-0x1c(%rsp)
  4016f6:	8b 44 24 cc          	mov    -0x34(%rsp),%eax
  4016fa:	69 c0 78 67 00 00    	imul   $0x6778,%eax,%eax
  401700:	89 44 24 cc          	mov    %eax,-0x34(%rsp)
  401704:	8b 44 24 d8          	mov    -0x28(%rsp),%eax
  401708:	69 c0 a0 4a 00 00    	imul   $0x4aa0,%eax,%eax
  40170e:	89 44 24 d8          	mov    %eax,-0x28(%rsp)
  401712:	8b 44 24 dc          	mov    -0x24(%rsp),%eax
  401716:	69 c0 06 47 00 00    	imul   $0x4706,%eax,%eax
  40171c:	89 44 24 dc          	mov    %eax,-0x24(%rsp)
  401720:	8b 44 24 d8          	mov    -0x28(%rsp),%eax
  401724:	69 c0 7a ff 00 00    	imul   $0xff7a,%eax,%eax
  40172a:	89 44 24 d8          	mov    %eax,-0x28(%rsp)
  40172e:	8b 44 24 cc          	mov    -0x34(%rsp),%eax
  401732:	69 c0 f3 60 00 00    	imul   $0x60f3,%eax,%eax
  401738:	89 44 24 cc          	mov    %eax,-0x34(%rsp)
  40173c:	8b 44 24 c8          	mov    -0x38(%rsp),%eax
  401740:	69 c0 53 0a 00 00    	imul   $0xa53,%eax,%eax
  401746:	89 44 24 c8          	mov    %eax,-0x38(%rsp)
  40174a:	8b 44 24 d4          	mov    -0x2c(%rsp),%eax
  40174e:	69 c0 20 1f 00 00    	imul   $0x1f20,%eax,%eax
  401754:	89 44 24 d4          	mov    %eax,-0x2c(%rsp)
  401758:	8b 44 24 ec          	mov    -0x14(%rsp),%eax
  40175c:	69 c0 06 ad 00 00    	imul   $0xad06,%eax,%eax
  401762:	89 44 24 ec          	mov    %eax,-0x14(%rsp)
  401766:	8b 44 24 e8          	mov    -0x18(%rsp),%eax
  40176a:	69 c0 cb 90 00 00    	imul   $0x90cb,%eax,%eax
  401770:	89 44 24 e8          	mov    %eax,-0x18(%rsp)
  401774:	8b 44 24 e4          	mov    -0x1c(%rsp),%eax
  401778:	69 c0 e6 b8 00 00    	imul   $0xb8e6,%eax,%eax
  40177e:	89 44 24 e4          	mov    %eax,-0x1c(%rsp)
  401782:	8b 44 24 cc          	mov    -0x34(%rsp),%eax
  401786:	69 c0 40 8f 00 00    	imul   $0x8f40,%eax,%eax
  40178c:	89 44 24 cc          	mov    %eax,-0x34(%rsp)
  401790:	8b 44 24 d4          	mov    -0x2c(%rsp),%eax
  401794:	69 c0 99 27 00 00    	imul   $0x2799,%eax,%eax
  40179a:	89 44 24 d4          	mov    %eax,-0x2c(%rsp)
  40179e:	8b 44 24 dc          	mov    -0x24(%rsp),%eax
  4017a2:	69 c0 f1 04 00 00    	imul   $0x4f1,%eax,%eax
  4017a8:	89 44 24 dc          	mov    %eax,-0x24(%rsp)
  4017ac:	8b 44 24 e4          	mov    -0x1c(%rsp),%eax
  4017b0:	69 c0 37 9b 00 00    	imul   $0x9b37,%eax,%eax
  4017b6:	89 44 24 e4          	mov    %eax,-0x1c(%rsp)
  4017ba:	8b 44 24 e4          	mov    -0x1c(%rsp),%eax
  4017be:	69 c0 3d ed 00 00    	imul   $0xed3d,%eax,%eax
  4017c4:	89 44 24 e4          	mov    %eax,-0x1c(%rsp)
  4017c8:	8b 44 24 e0          	mov    -0x20(%rsp),%eax
  4017cc:	69 c0 88 49 00 00    	imul   $0x4988,%eax,%eax
  4017d2:	89 44 24 e0          	mov    %eax,-0x20(%rsp)
  4017d6:	8b 44 24 e8          	mov    -0x18(%rsp),%eax
  4017da:	69 c0 65 4a 00 00    	imul   $0x4a65,%eax,%eax
  4017e0:	89 44 24 e8          	mov    %eax,-0x18(%rsp)
  4017e4:	8b 44 24 e4          	mov    -0x1c(%rsp),%eax
  4017e8:	69 c0 00 d2 00 00    	imul   $0xd200,%eax,%eax
  4017ee:	89 44 24 e4          	mov    %eax,-0x1c(%rsp)
  4017f2:	8b 44 24 d0          	mov    -0x30(%rsp),%eax
  4017f6:	69 c0 16 ae 00 00    	imul   $0xae16,%eax,%eax
  4017fc:	89 44 24 d0          	mov    %eax,-0x30(%rsp)
  401800:	ba 00 00 00 00       	mov    $0x0,%edx
  401805:	b8 00 00 00 00       	mov    $0x0,%eax
  40180a:	eb 0b                	jmp    401817 <scramble+0x478>
  40180c:	89 d1                	mov    %edx,%ecx
  40180e:	8b 4c 8c c8          	mov    -0x38(%rsp,%rcx,4),%ecx
  401812:	01 c8                	add    %ecx,%eax
  401814:	83 c2 01             	add    $0x1,%edx
  401817:	83 fa 09             	cmp    $0x9,%edx
  40181a:	76 f0                	jbe    40180c <scramble+0x46d>
  40181c:	f3 c3                	repz retq 

000000000040181e <getbuf>:
  40181e:	48 83 ec 18          	sub    $0x18,%rsp
  401822:	48 89 e7             	mov    %rsp,%rdi
  401825:	e8 7e 02 00 00       	callq  401aa8 <Gets>
  40182a:	b8 01 00 00 00       	mov    $0x1,%eax
  40182f:	48 83 c4 18          	add    $0x18,%rsp
  401833:	c3                   	retq   

0000000000401834 <touch1>:
  401834:	48 83 ec 08          	sub    $0x8,%rsp
  401838:	c7 05 da 2c 20 00 01 	movl   $0x1,0x202cda(%rip)        # 60451c <vlevel>
  40183f:	00 00 00 
  401842:	bf 26 31 40 00       	mov    $0x403126,%edi
  401847:	e8 94 f4 ff ff       	callq  400ce0 <puts@plt>
  40184c:	bf 01 00 00 00       	mov    $0x1,%edi
  401851:	e8 97 04 00 00       	callq  401ced <validate>
  401856:	bf 00 00 00 00       	mov    $0x0,%edi
  40185b:	e8 10 f6 ff ff       	callq  400e70 <exit@plt>

0000000000401860 <touch2>:
  401860:	48 83 ec 08          	sub    $0x8,%rsp
  401864:	89 fa                	mov    %edi,%edx
  401866:	c7 05 ac 2c 20 00 02 	movl   $0x2,0x202cac(%rip)        # 60451c <vlevel>
  40186d:	00 00 00 
  401870:	39 3d ae 2c 20 00    	cmp    %edi,0x202cae(%rip)        # 604524 <cookie>
  401876:	75 20                	jne    401898 <touch2+0x38>
  401878:	be 48 31 40 00       	mov    $0x403148,%esi
  40187d:	bf 01 00 00 00       	mov    $0x1,%edi
  401882:	b8 00 00 00 00       	mov    $0x0,%eax
  401887:	e8 94 f5 ff ff       	callq  400e20 <__printf_chk@plt>
  40188c:	bf 02 00 00 00       	mov    $0x2,%edi
  401891:	e8 57 04 00 00       	callq  401ced <validate>
  401896:	eb 1e                	jmp    4018b6 <touch2+0x56>
  401898:	be 70 31 40 00       	mov    $0x403170,%esi
  40189d:	bf 01 00 00 00       	mov    $0x1,%edi
  4018a2:	b8 00 00 00 00       	mov    $0x0,%eax
  4018a7:	e8 74 f5 ff ff       	callq  400e20 <__printf_chk@plt>
  4018ac:	bf 02 00 00 00       	mov    $0x2,%edi
  4018b1:	e8 f9 04 00 00       	callq  401daf <fail>
  4018b6:	bf 00 00 00 00       	mov    $0x0,%edi
  4018bb:	e8 b0 f5 ff ff       	callq  400e70 <exit@plt>

00000000004018c0 <hexmatch>:
  4018c0:	41 54                	push   %r12
  4018c2:	55                   	push   %rbp
  4018c3:	53                   	push   %rbx
  4018c4:	48 83 c4 80          	add    $0xffffffffffffff80,%rsp
  4018c8:	89 fd                	mov    %edi,%ebp
  4018ca:	48 89 f3             	mov    %rsi,%rbx
  4018cd:	64 48 8b 04 25 28 00 	mov    %fs:0x28,%rax
  4018d4:	00 00 
  4018d6:	48 89 44 24 78       	mov    %rax,0x78(%rsp)
  4018db:	31 c0                	xor    %eax,%eax
  4018dd:	e8 fe f4 ff ff       	callq  400de0 <random@plt>
  4018e2:	48 89 c1             	mov    %rax,%rcx
  4018e5:	48 ba 0b d7 a3 70 3d 	movabs $0xa3d70a3d70a3d70b,%rdx
  4018ec:	0a d7 a3 
  4018ef:	48 f7 ea             	imul   %rdx
  4018f2:	48 01 ca             	add    %rcx,%rdx
  4018f5:	48 c1 fa 06          	sar    $0x6,%rdx
  4018f9:	48 89 c8             	mov    %rcx,%rax
  4018fc:	48 c1 f8 3f          	sar    $0x3f,%rax
  401900:	48 29 c2             	sub    %rax,%rdx
  401903:	48 8d 04 92          	lea    (%rdx,%rdx,4),%rax
  401907:	48 8d 14 80          	lea    (%rax,%rax,4),%rdx
  40190b:	48 8d 04 95 00 00 00 	lea    0x0(,%rdx,4),%rax
  401912:	00 
  401913:	48 29 c1             	sub    %rax,%rcx
  401916:	4c 8d 24 0c          	lea    (%rsp,%rcx,1),%r12
  40191a:	41 89 e8             	mov    %ebp,%r8d
  40191d:	b9 43 31 40 00       	mov    $0x403143,%ecx
  401922:	48 c7 c2 ff ff ff ff 	mov    $0xffffffffffffffff,%rdx
  401929:	be 01 00 00 00       	mov    $0x1,%esi
  40192e:	4c 89 e7             	mov    %r12,%rdi
  401931:	b8 00 00 00 00       	mov    $0x0,%eax
  401936:	e8 65 f5 ff ff       	callq  400ea0 <__sprintf_chk@plt>
  40193b:	ba 09 00 00 00       	mov    $0x9,%edx
  401940:	4c 89 e6             	mov    %r12,%rsi
  401943:	48 89 df             	mov    %rbx,%rdi
  401946:	e8 75 f3 ff ff       	callq  400cc0 <strncmp@plt>
  40194b:	85 c0                	test   %eax,%eax
  40194d:	0f 94 c0             	sete   %al
  401950:	48 8b 5c 24 78       	mov    0x78(%rsp),%rbx
  401955:	64 48 33 1c 25 28 00 	xor    %fs:0x28,%rbx
  40195c:	00 00 
  40195e:	74 05                	je     401965 <hexmatch+0xa5>
  401960:	e8 9b f3 ff ff       	callq  400d00 <__stack_chk_fail@plt>
  401965:	0f b6 c0             	movzbl %al,%eax
  401968:	48 83 ec 80          	sub    $0xffffffffffffff80,%rsp
  40196c:	5b                   	pop    %rbx
  40196d:	5d                   	pop    %rbp
  40196e:	41 5c                	pop    %r12
  401970:	c3                   	retq   

0000000000401971 <touch3>:
  401971:	53                   	push   %rbx
  401972:	48 89 fb             	mov    %rdi,%rbx
  401975:	c7 05 9d 2b 20 00 03 	movl   $0x3,0x202b9d(%rip)        # 60451c <vlevel>
  40197c:	00 00 00 
  40197f:	48 89 fe             	mov    %rdi,%rsi
  401982:	8b 3d 9c 2b 20 00    	mov    0x202b9c(%rip),%edi        # 604524 <cookie>
  401988:	e8 33 ff ff ff       	callq  4018c0 <hexmatch>
  40198d:	85 c0                	test   %eax,%eax
  40198f:	74 23                	je     4019b4 <touch3+0x43>
  401991:	48 89 da             	mov    %rbx,%rdx
  401994:	be 98 31 40 00       	mov    $0x403198,%esi
  401999:	bf 01 00 00 00       	mov    $0x1,%edi
  40199e:	b8 00 00 00 00       	mov    $0x0,%eax
  4019a3:	e8 78 f4 ff ff       	callq  400e20 <__printf_chk@plt>
  4019a8:	bf 03 00 00 00       	mov    $0x3,%edi
  4019ad:	e8 3b 03 00 00       	callq  401ced <validate>
  4019b2:	eb 21                	jmp    4019d5 <touch3+0x64>
  4019b4:	48 89 da             	mov    %rbx,%rdx
  4019b7:	be c0 31 40 00       	mov    $0x4031c0,%esi
  4019bc:	bf 01 00 00 00       	mov    $0x1,%edi
  4019c1:	b8 00 00 00 00       	mov    $0x0,%eax
  4019c6:	e8 55 f4 ff ff       	callq  400e20 <__printf_chk@plt>
  4019cb:	bf 03 00 00 00       	mov    $0x3,%edi
  4019d0:	e8 da 03 00 00       	callq  401daf <fail>
  4019d5:	bf 00 00 00 00       	mov    $0x0,%edi
  4019da:	e8 91 f4 ff ff       	callq  400e70 <exit@plt>

00000000004019df <test>:
  4019df:	48 83 ec 08          	sub    $0x8,%rsp
  4019e3:	b8 00 00 00 00       	mov    $0x0,%eax
  4019e8:	e8 31 fe ff ff       	callq  40181e <getbuf>
  4019ed:	89 c2                	mov    %eax,%edx
  4019ef:	be e8 31 40 00       	mov    $0x4031e8,%esi
  4019f4:	bf 01 00 00 00       	mov    $0x1,%edi
  4019f9:	b8 00 00 00 00       	mov    $0x0,%eax
  4019fe:	e8 1d f4 ff ff       	callq  400e20 <__printf_chk@plt>
  401a03:	48 83 c4 08          	add    $0x8,%rsp
  401a07:	c3                   	retq   

0000000000401a08 <save_char>:
  401a08:	8b 05 36 37 20 00    	mov    0x203736(%rip),%eax        # 605144 <gets_cnt>
  401a0e:	3d ff 03 00 00       	cmp    $0x3ff,%eax
  401a13:	7f 49                	jg     401a5e <save_char+0x56>
  401a15:	8d 14 40             	lea    (%rax,%rax,2),%edx
  401a18:	89 f9                	mov    %edi,%ecx
  401a1a:	c0 e9 04             	shr    $0x4,%cl
  401a1d:	83 e1 0f             	and    $0xf,%ecx
  401a20:	0f b6 b1 10 35 40 00 	movzbl 0x403510(%rcx),%esi
  401a27:	48 63 ca             	movslq %edx,%rcx
  401a2a:	40 88 b1 40 45 60 00 	mov    %sil,0x604540(%rcx)
  401a31:	8d 4a 01             	lea    0x1(%rdx),%ecx
  401a34:	83 e7 0f             	and    $0xf,%edi
  401a37:	0f b6 b7 10 35 40 00 	movzbl 0x403510(%rdi),%esi
  401a3e:	48 63 c9             	movslq %ecx,%rcx
  401a41:	40 88 b1 40 45 60 00 	mov    %sil,0x604540(%rcx)
  401a48:	83 c2 02             	add    $0x2,%edx
  401a4b:	48 63 d2             	movslq %edx,%rdx
  401a4e:	c6 82 40 45 60 00 20 	movb   $0x20,0x604540(%rdx)
  401a55:	83 c0 01             	add    $0x1,%eax
  401a58:	89 05 e6 36 20 00    	mov    %eax,0x2036e6(%rip)        # 605144 <gets_cnt>
  401a5e:	f3 c3                	repz retq 

0000000000401a60 <save_term>:
  401a60:	8b 05 de 36 20 00    	mov    0x2036de(%rip),%eax        # 605144 <gets_cnt>
  401a66:	8d 04 40             	lea    (%rax,%rax,2),%eax
  401a69:	48 98                	cltq   
  401a6b:	c6 80 40 45 60 00 00 	movb   $0x0,0x604540(%rax)
  401a72:	c3                   	retq   

0000000000401a73 <check_fail>:
  401a73:	48 83 ec 08          	sub    $0x8,%rsp
  401a77:	0f be 15 ca 36 20 00 	movsbl 0x2036ca(%rip),%edx        # 605148 <target_prefix>
  401a7e:	41 b8 40 45 60 00    	mov    $0x604540,%r8d
  401a84:	8b 0d 8e 2a 20 00    	mov    0x202a8e(%rip),%ecx        # 604518 <check_level>
  401a8a:	be 0b 32 40 00       	mov    $0x40320b,%esi
  401a8f:	bf 01 00 00 00       	mov    $0x1,%edi
  401a94:	b8 00 00 00 00       	mov    $0x0,%eax
  401a99:	e8 82 f3 ff ff       	callq  400e20 <__printf_chk@plt>
  401a9e:	bf 01 00 00 00       	mov    $0x1,%edi
  401aa3:	e8 c8 f3 ff ff       	callq  400e70 <exit@plt>

0000000000401aa8 <Gets>:
  401aa8:	41 54                	push   %r12
  401aaa:	55                   	push   %rbp
  401aab:	53                   	push   %rbx
  401aac:	49 89 fc             	mov    %rdi,%r12
  401aaf:	c7 05 8b 36 20 00 00 	movl   $0x0,0x20368b(%rip)        # 605144 <gets_cnt>
  401ab6:	00 00 00 
  401ab9:	48 89 fb             	mov    %rdi,%rbx
  401abc:	eb 11                	jmp    401acf <Gets+0x27>
  401abe:	48 8d 6b 01          	lea    0x1(%rbx),%rbp
  401ac2:	88 03                	mov    %al,(%rbx)
  401ac4:	0f b6 f8             	movzbl %al,%edi
  401ac7:	e8 3c ff ff ff       	callq  401a08 <save_char>
  401acc:	48 89 eb             	mov    %rbp,%rbx
  401acf:	48 8b 3d 3a 2a 20 00 	mov    0x202a3a(%rip),%rdi        # 604510 <infile>
  401ad6:	e8 15 f3 ff ff       	callq  400df0 <_IO_getc@plt>
  401adb:	83 f8 ff             	cmp    $0xffffffff,%eax
  401ade:	74 05                	je     401ae5 <Gets+0x3d>
  401ae0:	83 f8 0a             	cmp    $0xa,%eax
  401ae3:	75 d9                	jne    401abe <Gets+0x16>
  401ae5:	c6 03 00             	movb   $0x0,(%rbx)
  401ae8:	b8 00 00 00 00       	mov    $0x0,%eax
  401aed:	e8 6e ff ff ff       	callq  401a60 <save_term>
  401af2:	4c 89 e0             	mov    %r12,%rax
  401af5:	5b                   	pop    %rbx
  401af6:	5d                   	pop    %rbp
  401af7:	41 5c                	pop    %r12
  401af9:	c3                   	retq   

0000000000401afa <notify_server>:
  401afa:	53                   	push   %rbx
  401afb:	48 81 ec 10 40 00 00 	sub    $0x4010,%rsp
  401b02:	64 48 8b 04 25 28 00 	mov    %fs:0x28,%rax
  401b09:	00 00 
  401b0b:	48 89 84 24 08 40 00 	mov    %rax,0x4008(%rsp)
  401b12:	00 
  401b13:	31 c0                	xor    %eax,%eax
  401b15:	83 3d 0c 2a 20 00 00 	cmpl   $0x0,0x202a0c(%rip)        # 604528 <is_checker>
  401b1c:	0f 85 aa 01 00 00    	jne    401ccc <notify_server+0x1d2>
  401b22:	89 fb                	mov    %edi,%ebx
  401b24:	8b 05 1a 36 20 00    	mov    0x20361a(%rip),%eax        # 605144 <gets_cnt>
  401b2a:	83 c0 64             	add    $0x64,%eax
  401b2d:	3d 00 20 00 00       	cmp    $0x2000,%eax
  401b32:	7e 1e                	jle    401b52 <notify_server+0x58>
  401b34:	be 40 33 40 00       	mov    $0x403340,%esi
  401b39:	bf 01 00 00 00       	mov    $0x1,%edi
  401b3e:	b8 00 00 00 00       	mov    $0x0,%eax
  401b43:	e8 d8 f2 ff ff       	callq  400e20 <__printf_chk@plt>
  401b48:	bf 01 00 00 00       	mov    $0x1,%edi
  401b4d:	e8 1e f3 ff ff       	callq  400e70 <exit@plt>
  401b52:	0f be 05 ef 35 20 00 	movsbl 0x2035ef(%rip),%eax        # 605148 <target_prefix>
  401b59:	83 3d 48 29 20 00 00 	cmpl   $0x0,0x202948(%rip)        # 6044a8 <notify>
  401b60:	74 08                	je     401b6a <notify_server+0x70>
  401b62:	8b 15 b8 29 20 00    	mov    0x2029b8(%rip),%edx        # 604520 <authkey>
  401b68:	eb 05                	jmp    401b6f <notify_server+0x75>
  401b6a:	ba ff ff ff ff       	mov    $0xffffffff,%edx
  401b6f:	85 db                	test   %ebx,%ebx
  401b71:	74 08                	je     401b7b <notify_server+0x81>
  401b73:	41 b9 21 32 40 00    	mov    $0x403221,%r9d
  401b79:	eb 06                	jmp    401b81 <notify_server+0x87>
  401b7b:	41 b9 26 32 40 00    	mov    $0x403226,%r9d
  401b81:	68 40 45 60 00       	pushq  $0x604540
  401b86:	56                   	push   %rsi
  401b87:	50                   	push   %rax
  401b88:	52                   	push   %rdx
  401b89:	44 8b 05 d8 25 20 00 	mov    0x2025d8(%rip),%r8d        # 604168 <target_id>
  401b90:	b9 2b 32 40 00       	mov    $0x40322b,%ecx
  401b95:	ba 00 20 00 00       	mov    $0x2000,%edx
  401b9a:	be 01 00 00 00       	mov    $0x1,%esi
  401b9f:	48 8d 7c 24 20       	lea    0x20(%rsp),%rdi
  401ba4:	b8 00 00 00 00       	mov    $0x0,%eax
  401ba9:	e8 f2 f2 ff ff       	callq  400ea0 <__sprintf_chk@plt>
  401bae:	48 83 c4 20          	add    $0x20,%rsp
  401bb2:	83 3d ef 28 20 00 00 	cmpl   $0x0,0x2028ef(%rip)        # 6044a8 <notify>
  401bb9:	0f 84 81 00 00 00    	je     401c40 <notify_server+0x146>
  401bbf:	85 db                	test   %ebx,%ebx
  401bc1:	74 6e                	je     401c31 <notify_server+0x137>
  401bc3:	4c 8d 8c 24 00 20 00 	lea    0x2000(%rsp),%r9
  401bca:	00 
  401bcb:	41 b8 00 00 00 00    	mov    $0x0,%r8d
  401bd1:	48 89 e1             	mov    %rsp,%rcx
  401bd4:	48 8b 15 95 25 20 00 	mov    0x202595(%rip),%rdx        # 604170 <lab>
  401bdb:	48 8b 35 96 25 20 00 	mov    0x202596(%rip),%rsi        # 604178 <course>
  401be2:	48 8b 3d 77 25 20 00 	mov    0x202577(%rip),%rdi        # 604160 <user_id>
  401be9:	e8 bb 10 00 00       	callq  402ca9 <driver_post>
  401bee:	85 c0                	test   %eax,%eax
  401bf0:	79 26                	jns    401c18 <notify_server+0x11e>
  401bf2:	48 8d 94 24 00 20 00 	lea    0x2000(%rsp),%rdx
  401bf9:	00 
  401bfa:	be 47 32 40 00       	mov    $0x403247,%esi
  401bff:	bf 01 00 00 00       	mov    $0x1,%edi
  401c04:	b8 00 00 00 00       	mov    $0x0,%eax
  401c09:	e8 12 f2 ff ff       	callq  400e20 <__printf_chk@plt>
  401c0e:	bf 01 00 00 00       	mov    $0x1,%edi
  401c13:	e8 58 f2 ff ff       	callq  400e70 <exit@plt>
  401c18:	bf 70 33 40 00       	mov    $0x403370,%edi
  401c1d:	e8 be f0 ff ff       	callq  400ce0 <puts@plt>
  401c22:	bf 53 32 40 00       	mov    $0x403253,%edi
  401c27:	e8 b4 f0 ff ff       	callq  400ce0 <puts@plt>
  401c2c:	e9 9b 00 00 00       	jmpq   401ccc <notify_server+0x1d2>
  401c31:	bf 5d 32 40 00       	mov    $0x40325d,%edi
  401c36:	e8 a5 f0 ff ff       	callq  400ce0 <puts@plt>
  401c3b:	e9 8c 00 00 00       	jmpq   401ccc <notify_server+0x1d2>
  401c40:	85 db                	test   %ebx,%ebx
  401c42:	74 07                	je     401c4b <notify_server+0x151>
  401c44:	ba 21 32 40 00       	mov    $0x403221,%edx
  401c49:	eb 05                	jmp    401c50 <notify_server+0x156>
  401c4b:	ba 26 32 40 00       	mov    $0x403226,%edx
  401c50:	be a8 33 40 00       	mov    $0x4033a8,%esi
  401c55:	bf 01 00 00 00       	mov    $0x1,%edi
  401c5a:	b8 00 00 00 00       	mov    $0x0,%eax
  401c5f:	e8 bc f1 ff ff       	callq  400e20 <__printf_chk@plt>
  401c64:	48 8b 15 f5 24 20 00 	mov    0x2024f5(%rip),%rdx        # 604160 <user_id>
  401c6b:	be 64 32 40 00       	mov    $0x403264,%esi
  401c70:	bf 01 00 00 00       	mov    $0x1,%edi
  401c75:	b8 00 00 00 00       	mov    $0x0,%eax
  401c7a:	e8 a1 f1 ff ff       	callq  400e20 <__printf_chk@plt>
  401c7f:	48 8b 15 f2 24 20 00 	mov    0x2024f2(%rip),%rdx        # 604178 <course>
  401c86:	be 71 32 40 00       	mov    $0x403271,%esi
  401c8b:	bf 01 00 00 00       	mov    $0x1,%edi
  401c90:	b8 00 00 00 00       	mov    $0x0,%eax
  401c95:	e8 86 f1 ff ff       	callq  400e20 <__printf_chk@plt>
  401c9a:	48 8b 15 cf 24 20 00 	mov    0x2024cf(%rip),%rdx        # 604170 <lab>
  401ca1:	be 7d 32 40 00       	mov    $0x40327d,%esi
  401ca6:	bf 01 00 00 00       	mov    $0x1,%edi
  401cab:	b8 00 00 00 00       	mov    $0x0,%eax
  401cb0:	e8 6b f1 ff ff       	callq  400e20 <__printf_chk@plt>
  401cb5:	48 89 e2             	mov    %rsp,%rdx
  401cb8:	be 86 32 40 00       	mov    $0x403286,%esi
  401cbd:	bf 01 00 00 00       	mov    $0x1,%edi
  401cc2:	b8 00 00 00 00       	mov    $0x0,%eax
  401cc7:	e8 54 f1 ff ff       	callq  400e20 <__printf_chk@plt>
  401ccc:	48 8b 84 24 08 40 00 	mov    0x4008(%rsp),%rax
  401cd3:	00 
  401cd4:	64 48 33 04 25 28 00 	xor    %fs:0x28,%rax
  401cdb:	00 00 
  401cdd:	74 05                	je     401ce4 <notify_server+0x1ea>
  401cdf:	e8 1c f0 ff ff       	callq  400d00 <__stack_chk_fail@plt>
  401ce4:	48 81 c4 10 40 00 00 	add    $0x4010,%rsp
  401ceb:	5b                   	pop    %rbx
  401cec:	c3                   	retq   

0000000000401ced <validate>:
  401ced:	53                   	push   %rbx
  401cee:	89 fb                	mov    %edi,%ebx
  401cf0:	83 3d 31 28 20 00 00 	cmpl   $0x0,0x202831(%rip)        # 604528 <is_checker>
  401cf7:	74 6b                	je     401d64 <validate+0x77>
  401cf9:	39 3d 1d 28 20 00    	cmp    %edi,0x20281d(%rip)        # 60451c <vlevel>
  401cff:	74 14                	je     401d15 <validate+0x28>
  401d01:	bf 92 32 40 00       	mov    $0x403292,%edi
  401d06:	e8 d5 ef ff ff       	callq  400ce0 <puts@plt>
  401d0b:	b8 00 00 00 00       	mov    $0x0,%eax
  401d10:	e8 5e fd ff ff       	callq  401a73 <check_fail>
  401d15:	8b 15 fd 27 20 00    	mov    0x2027fd(%rip),%edx        # 604518 <check_level>
  401d1b:	39 d7                	cmp    %edx,%edi
  401d1d:	74 20                	je     401d3f <validate+0x52>
  401d1f:	89 f9                	mov    %edi,%ecx
  401d21:	be d0 33 40 00       	mov    $0x4033d0,%esi
  401d26:	bf 01 00 00 00       	mov    $0x1,%edi
  401d2b:	b8 00 00 00 00       	mov    $0x0,%eax
  401d30:	e8 eb f0 ff ff       	callq  400e20 <__printf_chk@plt>
  401d35:	b8 00 00 00 00       	mov    $0x0,%eax
  401d3a:	e8 34 fd ff ff       	callq  401a73 <check_fail>
  401d3f:	0f be 15 02 34 20 00 	movsbl 0x203402(%rip),%edx        # 605148 <target_prefix>
  401d46:	41 b8 40 45 60 00    	mov    $0x604540,%r8d
  401d4c:	89 f9                	mov    %edi,%ecx
  401d4e:	be b0 32 40 00       	mov    $0x4032b0,%esi
  401d53:	bf 01 00 00 00       	mov    $0x1,%edi
  401d58:	b8 00 00 00 00       	mov    $0x0,%eax
  401d5d:	e8 be f0 ff ff       	callq  400e20 <__printf_chk@plt>
  401d62:	eb 49                	jmp    401dad <validate+0xc0>
  401d64:	3b 3d b2 27 20 00    	cmp    0x2027b2(%rip),%edi        # 60451c <vlevel>
  401d6a:	74 18                	je     401d84 <validate+0x97>
  401d6c:	bf 92 32 40 00       	mov    $0x403292,%edi
  401d71:	e8 6a ef ff ff       	callq  400ce0 <puts@plt>
  401d76:	89 de                	mov    %ebx,%esi
  401d78:	bf 00 00 00 00       	mov    $0x0,%edi
  401d7d:	e8 78 fd ff ff       	callq  401afa <notify_server>
  401d82:	eb 29                	jmp    401dad <validate+0xc0>
  401d84:	0f be 0d bd 33 20 00 	movsbl 0x2033bd(%rip),%ecx        # 605148 <target_prefix>
  401d8b:	89 fa                	mov    %edi,%edx
  401d8d:	be f8 33 40 00       	mov    $0x4033f8,%esi
  401d92:	bf 01 00 00 00       	mov    $0x1,%edi
  401d97:	b8 00 00 00 00       	mov    $0x0,%eax
  401d9c:	e8 7f f0 ff ff       	callq  400e20 <__printf_chk@plt>
  401da1:	89 de                	mov    %ebx,%esi
  401da3:	bf 01 00 00 00       	mov    $0x1,%edi
  401da8:	e8 4d fd ff ff       	callq  401afa <notify_server>
  401dad:	5b                   	pop    %rbx
  401dae:	c3                   	retq   

0000000000401daf <fail>:
  401daf:	48 83 ec 08          	sub    $0x8,%rsp
  401db3:	83 3d 6e 27 20 00 00 	cmpl   $0x0,0x20276e(%rip)        # 604528 <is_checker>
  401dba:	74 0a                	je     401dc6 <fail+0x17>
  401dbc:	b8 00 00 00 00       	mov    $0x0,%eax
  401dc1:	e8 ad fc ff ff       	callq  401a73 <check_fail>
  401dc6:	89 fe                	mov    %edi,%esi
  401dc8:	bf 00 00 00 00       	mov    $0x0,%edi
  401dcd:	e8 28 fd ff ff       	callq  401afa <notify_server>
  401dd2:	48 83 c4 08          	add    $0x8,%rsp
  401dd6:	c3                   	retq   

0000000000401dd7 <bushandler>:
  401dd7:	48 83 ec 08          	sub    $0x8,%rsp
  401ddb:	83 3d 46 27 20 00 00 	cmpl   $0x0,0x202746(%rip)        # 604528 <is_checker>
  401de2:	74 14                	je     401df8 <bushandler+0x21>
  401de4:	bf c5 32 40 00       	mov    $0x4032c5,%edi
  401de9:	e8 f2 ee ff ff       	callq  400ce0 <puts@plt>
  401dee:	b8 00 00 00 00       	mov    $0x0,%eax
  401df3:	e8 7b fc ff ff       	callq  401a73 <check_fail>
  401df8:	bf 30 34 40 00       	mov    $0x403430,%edi
  401dfd:	e8 de ee ff ff       	callq  400ce0 <puts@plt>
  401e02:	bf cf 32 40 00       	mov    $0x4032cf,%edi
  401e07:	e8 d4 ee ff ff       	callq  400ce0 <puts@plt>
  401e0c:	be 00 00 00 00       	mov    $0x0,%esi
  401e11:	bf 00 00 00 00       	mov    $0x0,%edi
  401e16:	e8 df fc ff ff       	callq  401afa <notify_server>
  401e1b:	bf 01 00 00 00       	mov    $0x1,%edi
  401e20:	e8 4b f0 ff ff       	callq  400e70 <exit@plt>

0000000000401e25 <seghandler>:
  401e25:	48 83 ec 08          	sub    $0x8,%rsp
  401e29:	83 3d f8 26 20 00 00 	cmpl   $0x0,0x2026f8(%rip)        # 604528 <is_checker>
  401e30:	74 14                	je     401e46 <seghandler+0x21>
  401e32:	bf e5 32 40 00       	mov    $0x4032e5,%edi
  401e37:	e8 a4 ee ff ff       	callq  400ce0 <puts@plt>
  401e3c:	b8 00 00 00 00       	mov    $0x0,%eax
  401e41:	e8 2d fc ff ff       	callq  401a73 <check_fail>
  401e46:	bf 50 34 40 00       	mov    $0x403450,%edi
  401e4b:	e8 90 ee ff ff       	callq  400ce0 <puts@plt>
  401e50:	bf cf 32 40 00       	mov    $0x4032cf,%edi
  401e55:	e8 86 ee ff ff       	callq  400ce0 <puts@plt>
  401e5a:	be 00 00 00 00       	mov    $0x0,%esi
  401e5f:	bf 00 00 00 00       	mov    $0x0,%edi
  401e64:	e8 91 fc ff ff       	callq  401afa <notify_server>
  401e69:	bf 01 00 00 00       	mov    $0x1,%edi
  401e6e:	e8 fd ef ff ff       	callq  400e70 <exit@plt>

0000000000401e73 <illegalhandler>:
  401e73:	48 83 ec 08          	sub    $0x8,%rsp
  401e77:	83 3d aa 26 20 00 00 	cmpl   $0x0,0x2026aa(%rip)        # 604528 <is_checker>
  401e7e:	74 14                	je     401e94 <illegalhandler+0x21>
  401e80:	bf f8 32 40 00       	mov    $0x4032f8,%edi
  401e85:	e8 56 ee ff ff       	callq  400ce0 <puts@plt>
  401e8a:	b8 00 00 00 00       	mov    $0x0,%eax
  401e8f:	e8 df fb ff ff       	callq  401a73 <check_fail>
  401e94:	bf 78 34 40 00       	mov    $0x403478,%edi
  401e99:	e8 42 ee ff ff       	callq  400ce0 <puts@plt>
  401e9e:	bf cf 32 40 00       	mov    $0x4032cf,%edi
  401ea3:	e8 38 ee ff ff       	callq  400ce0 <puts@plt>
  401ea8:	be 00 00 00 00       	mov    $0x0,%esi
  401ead:	bf 00 00 00 00       	mov    $0x0,%edi
  401eb2:	e8 43 fc ff ff       	callq  401afa <notify_server>
  401eb7:	bf 01 00 00 00       	mov    $0x1,%edi
  401ebc:	e8 af ef ff ff       	callq  400e70 <exit@plt>

0000000000401ec1 <sigalrmhandler>:
  401ec1:	48 83 ec 08          	sub    $0x8,%rsp
  401ec5:	83 3d 5c 26 20 00 00 	cmpl   $0x0,0x20265c(%rip)        # 604528 <is_checker>
  401ecc:	74 14                	je     401ee2 <sigalrmhandler+0x21>
  401ece:	bf 0c 33 40 00       	mov    $0x40330c,%edi
  401ed3:	e8 08 ee ff ff       	callq  400ce0 <puts@plt>
  401ed8:	b8 00 00 00 00       	mov    $0x0,%eax
  401edd:	e8 91 fb ff ff       	callq  401a73 <check_fail>
  401ee2:	ba 05 00 00 00       	mov    $0x5,%edx
  401ee7:	be a8 34 40 00       	mov    $0x4034a8,%esi
  401eec:	bf 01 00 00 00       	mov    $0x1,%edi
  401ef1:	b8 00 00 00 00       	mov    $0x0,%eax
  401ef6:	e8 25 ef ff ff       	callq  400e20 <__printf_chk@plt>
  401efb:	be 00 00 00 00       	mov    $0x0,%esi
  401f00:	bf 00 00 00 00       	mov    $0x0,%edi
  401f05:	e8 f0 fb ff ff       	callq  401afa <notify_server>
  401f0a:	bf 01 00 00 00       	mov    $0x1,%edi
  401f0f:	e8 5c ef ff ff       	callq  400e70 <exit@plt>

0000000000401f14 <launch>:
  401f14:	55                   	push   %rbp
  401f15:	48 89 e5             	mov    %rsp,%rbp
  401f18:	48 83 ec 10          	sub    $0x10,%rsp
  401f1c:	48 89 fa             	mov    %rdi,%rdx
  401f1f:	64 48 8b 04 25 28 00 	mov    %fs:0x28,%rax
  401f26:	00 00 
  401f28:	48 89 45 f8          	mov    %rax,-0x8(%rbp)
  401f2c:	31 c0                	xor    %eax,%eax
  401f2e:	48 8d 47 1e          	lea    0x1e(%rdi),%rax
  401f32:	48 83 e0 f0          	and    $0xfffffffffffffff0,%rax
  401f36:	48 29 c4             	sub    %rax,%rsp
  401f39:	48 8d 7c 24 0f       	lea    0xf(%rsp),%rdi
  401f3e:	48 83 e7 f0          	and    $0xfffffffffffffff0,%rdi
  401f42:	be f4 00 00 00       	mov    $0xf4,%esi
  401f47:	e8 d4 ed ff ff       	callq  400d20 <memset@plt>
  401f4c:	48 8b 05 6d 25 20 00 	mov    0x20256d(%rip),%rax        # 6044c0 <stdin@@GLIBC_2.2.5>
  401f53:	48 39 05 b6 25 20 00 	cmp    %rax,0x2025b6(%rip)        # 604510 <infile>
  401f5a:	75 14                	jne    401f70 <launch+0x5c>
  401f5c:	be 14 33 40 00       	mov    $0x403314,%esi
  401f61:	bf 01 00 00 00       	mov    $0x1,%edi
  401f66:	b8 00 00 00 00       	mov    $0x0,%eax
  401f6b:	e8 b0 ee ff ff       	callq  400e20 <__printf_chk@plt>
  401f70:	c7 05 a2 25 20 00 00 	movl   $0x0,0x2025a2(%rip)        # 60451c <vlevel>
  401f77:	00 00 00 
  401f7a:	b8 00 00 00 00       	mov    $0x0,%eax
  401f7f:	e8 5b fa ff ff       	callq  4019df <test>
  401f84:	83 3d 9d 25 20 00 00 	cmpl   $0x0,0x20259d(%rip)        # 604528 <is_checker>
  401f8b:	74 14                	je     401fa1 <launch+0x8d>
  401f8d:	bf 21 33 40 00       	mov    $0x403321,%edi
  401f92:	e8 49 ed ff ff       	callq  400ce0 <puts@plt>
  401f97:	b8 00 00 00 00       	mov    $0x0,%eax
  401f9c:	e8 d2 fa ff ff       	callq  401a73 <check_fail>
  401fa1:	bf 2c 33 40 00       	mov    $0x40332c,%edi
  401fa6:	e8 35 ed ff ff       	callq  400ce0 <puts@plt>
  401fab:	48 8b 45 f8          	mov    -0x8(%rbp),%rax
  401faf:	64 48 33 04 25 28 00 	xor    %fs:0x28,%rax
  401fb6:	00 00 
  401fb8:	74 05                	je     401fbf <launch+0xab>
  401fba:	e8 41 ed ff ff       	callq  400d00 <__stack_chk_fail@plt>
  401fbf:	c9                   	leaveq 
  401fc0:	c3                   	retq   

0000000000401fc1 <stable_launch>:
  401fc1:	53                   	push   %rbx
  401fc2:	48 89 3d 3f 25 20 00 	mov    %rdi,0x20253f(%rip)        # 604508 <global_offset>
  401fc9:	41 b9 00 00 00 00    	mov    $0x0,%r9d
  401fcf:	41 b8 00 00 00 00    	mov    $0x0,%r8d
  401fd5:	b9 32 01 00 00       	mov    $0x132,%ecx
  401fda:	ba 07 00 00 00       	mov    $0x7,%edx
  401fdf:	be 00 00 10 00       	mov    $0x100000,%esi
  401fe4:	bf 00 60 58 55       	mov    $0x55586000,%edi
  401fe9:	e8 22 ed ff ff       	callq  400d10 <mmap@plt>
  401fee:	48 89 c3             	mov    %rax,%rbx
  401ff1:	48 3d 00 60 58 55    	cmp    $0x55586000,%rax
  401ff7:	74 37                	je     402030 <stable_launch+0x6f>
  401ff9:	be 00 00 10 00       	mov    $0x100000,%esi
  401ffe:	48 89 c7             	mov    %rax,%rdi
  402001:	e8 0a ee ff ff       	callq  400e10 <munmap@plt>
  402006:	b9 00 60 58 55       	mov    $0x55586000,%ecx
  40200b:	ba e0 34 40 00       	mov    $0x4034e0,%edx
  402010:	be 01 00 00 00       	mov    $0x1,%esi
  402015:	48 8b 3d cc 24 20 00 	mov    0x2024cc(%rip),%rdi        # 6044e8 <stderr@@GLIBC_2.2.5>
  40201c:	b8 00 00 00 00       	mov    $0x0,%eax
  402021:	e8 6a ee ff ff       	callq  400e90 <__fprintf_chk@plt>
  402026:	bf 01 00 00 00       	mov    $0x1,%edi
  40202b:	e8 40 ee ff ff       	callq  400e70 <exit@plt>
  402030:	48 8d 90 f8 ff 0f 00 	lea    0xffff8(%rax),%rdx
  402037:	48 89 15 12 31 20 00 	mov    %rdx,0x203112(%rip)        # 605150 <stack_top>
  40203e:	48 89 e0             	mov    %rsp,%rax
  402041:	48 89 d4             	mov    %rdx,%rsp
  402044:	48 89 c2             	mov    %rax,%rdx
  402047:	48 89 15 b2 24 20 00 	mov    %rdx,0x2024b2(%rip)        # 604500 <global_save_stack>
  40204e:	48 8b 3d b3 24 20 00 	mov    0x2024b3(%rip),%rdi        # 604508 <global_offset>
  402055:	e8 ba fe ff ff       	callq  401f14 <launch>
  40205a:	48 8b 05 9f 24 20 00 	mov    0x20249f(%rip),%rax        # 604500 <global_save_stack>
  402061:	48 89 c4             	mov    %rax,%rsp
  402064:	be 00 00 10 00       	mov    $0x100000,%esi
  402069:	48 89 df             	mov    %rbx,%rdi
  40206c:	e8 9f ed ff ff       	callq  400e10 <munmap@plt>
  402071:	5b                   	pop    %rbx
  402072:	c3                   	retq   

0000000000402073 <rio_readinitb>:
  402073:	89 37                	mov    %esi,(%rdi)
  402075:	c7 47 04 00 00 00 00 	movl   $0x0,0x4(%rdi)
  40207c:	48 8d 47 10          	lea    0x10(%rdi),%rax
  402080:	48 89 47 08          	mov    %rax,0x8(%rdi)
  402084:	c3                   	retq   

0000000000402085 <sigalrm_handler>:
  402085:	48 83 ec 08          	sub    $0x8,%rsp
  402089:	b9 00 00 00 00       	mov    $0x0,%ecx
  40208e:	ba 20 35 40 00       	mov    $0x403520,%edx
  402093:	be 01 00 00 00       	mov    $0x1,%esi
  402098:	48 8b 3d 49 24 20 00 	mov    0x202449(%rip),%rdi        # 6044e8 <stderr@@GLIBC_2.2.5>
  40209f:	b8 00 00 00 00       	mov    $0x0,%eax
  4020a4:	e8 e7 ed ff ff       	callq  400e90 <__fprintf_chk@plt>
  4020a9:	bf 01 00 00 00       	mov    $0x1,%edi
  4020ae:	e8 bd ed ff ff       	callq  400e70 <exit@plt>

00000000004020b3 <rio_writen>:
  4020b3:	41 55                	push   %r13
  4020b5:	41 54                	push   %r12
  4020b7:	55                   	push   %rbp
  4020b8:	53                   	push   %rbx
  4020b9:	48 83 ec 08          	sub    $0x8,%rsp
  4020bd:	41 89 fc             	mov    %edi,%r12d
  4020c0:	48 89 f5             	mov    %rsi,%rbp
  4020c3:	49 89 d5             	mov    %rdx,%r13
  4020c6:	48 89 d3             	mov    %rdx,%rbx
  4020c9:	eb 28                	jmp    4020f3 <rio_writen+0x40>
  4020cb:	48 89 da             	mov    %rbx,%rdx
  4020ce:	48 89 ee             	mov    %rbp,%rsi
  4020d1:	44 89 e7             	mov    %r12d,%edi
  4020d4:	e8 17 ec ff ff       	callq  400cf0 <write@plt>
  4020d9:	48 85 c0             	test   %rax,%rax
  4020dc:	7f 0f                	jg     4020ed <rio_writen+0x3a>
  4020de:	e8 bd eb ff ff       	callq  400ca0 <__errno_location@plt>
  4020e3:	83 38 04             	cmpl   $0x4,(%rax)
  4020e6:	75 15                	jne    4020fd <rio_writen+0x4a>
  4020e8:	b8 00 00 00 00       	mov    $0x0,%eax
  4020ed:	48 29 c3             	sub    %rax,%rbx
  4020f0:	48 01 c5             	add    %rax,%rbp
  4020f3:	48 85 db             	test   %rbx,%rbx
  4020f6:	75 d3                	jne    4020cb <rio_writen+0x18>
  4020f8:	4c 89 e8             	mov    %r13,%rax
  4020fb:	eb 07                	jmp    402104 <rio_writen+0x51>
  4020fd:	48 c7 c0 ff ff ff ff 	mov    $0xffffffffffffffff,%rax
  402104:	48 83 c4 08          	add    $0x8,%rsp
  402108:	5b                   	pop    %rbx
  402109:	5d                   	pop    %rbp
  40210a:	41 5c                	pop    %r12
  40210c:	41 5d                	pop    %r13
  40210e:	c3                   	retq   

000000000040210f <rio_read>:
  40210f:	41 55                	push   %r13
  402111:	41 54                	push   %r12
  402113:	55                   	push   %rbp
  402114:	53                   	push   %rbx
  402115:	48 83 ec 08          	sub    $0x8,%rsp
  402119:	48 89 fb             	mov    %rdi,%rbx
  40211c:	49 89 f5             	mov    %rsi,%r13
  40211f:	49 89 d4             	mov    %rdx,%r12
  402122:	eb 2e                	jmp    402152 <rio_read+0x43>
  402124:	48 8d 6b 10          	lea    0x10(%rbx),%rbp
  402128:	8b 3b                	mov    (%rbx),%edi
  40212a:	ba 00 20 00 00       	mov    $0x2000,%edx
  40212f:	48 89 ee             	mov    %rbp,%rsi
  402132:	e8 19 ec ff ff       	callq  400d50 <read@plt>
  402137:	89 43 04             	mov    %eax,0x4(%rbx)
  40213a:	85 c0                	test   %eax,%eax
  40213c:	79 0c                	jns    40214a <rio_read+0x3b>
  40213e:	e8 5d eb ff ff       	callq  400ca0 <__errno_location@plt>
  402143:	83 38 04             	cmpl   $0x4,(%rax)
  402146:	74 0a                	je     402152 <rio_read+0x43>
  402148:	eb 37                	jmp    402181 <rio_read+0x72>
  40214a:	85 c0                	test   %eax,%eax
  40214c:	74 3c                	je     40218a <rio_read+0x7b>
  40214e:	48 89 6b 08          	mov    %rbp,0x8(%rbx)
  402152:	8b 6b 04             	mov    0x4(%rbx),%ebp
  402155:	85 ed                	test   %ebp,%ebp
  402157:	7e cb                	jle    402124 <rio_read+0x15>
  402159:	89 e8                	mov    %ebp,%eax
  40215b:	49 39 c4             	cmp    %rax,%r12
  40215e:	77 03                	ja     402163 <rio_read+0x54>
  402160:	44 89 e5             	mov    %r12d,%ebp
  402163:	4c 63 e5             	movslq %ebp,%r12
  402166:	48 8b 73 08          	mov    0x8(%rbx),%rsi
  40216a:	4c 89 e2             	mov    %r12,%rdx
  40216d:	4c 89 ef             	mov    %r13,%rdi
  402170:	e8 4b ec ff ff       	callq  400dc0 <memcpy@plt>
  402175:	4c 01 63 08          	add    %r12,0x8(%rbx)
  402179:	29 6b 04             	sub    %ebp,0x4(%rbx)
  40217c:	4c 89 e0             	mov    %r12,%rax
  40217f:	eb 0e                	jmp    40218f <rio_read+0x80>
  402181:	48 c7 c0 ff ff ff ff 	mov    $0xffffffffffffffff,%rax
  402188:	eb 05                	jmp    40218f <rio_read+0x80>
  40218a:	b8 00 00 00 00       	mov    $0x0,%eax
  40218f:	48 83 c4 08          	add    $0x8,%rsp
  402193:	5b                   	pop    %rbx
  402194:	5d                   	pop    %rbp
  402195:	41 5c                	pop    %r12
  402197:	41 5d                	pop    %r13
  402199:	c3                   	retq   

000000000040219a <rio_readlineb>:
  40219a:	41 55                	push   %r13
  40219c:	41 54                	push   %r12
  40219e:	55                   	push   %rbp
  40219f:	53                   	push   %rbx
  4021a0:	48 83 ec 18          	sub    $0x18,%rsp
  4021a4:	49 89 fd             	mov    %rdi,%r13
  4021a7:	48 89 f5             	mov    %rsi,%rbp
  4021aa:	49 89 d4             	mov    %rdx,%r12
  4021ad:	bb 01 00 00 00       	mov    $0x1,%ebx
  4021b2:	eb 3f                	jmp    4021f3 <rio_readlineb+0x59>
  4021b4:	ba 01 00 00 00       	mov    $0x1,%edx
  4021b9:	48 8d 74 24 0f       	lea    0xf(%rsp),%rsi
  4021be:	4c 89 ef             	mov    %r13,%rdi
  4021c1:	e8 49 ff ff ff       	callq  40210f <rio_read>
  4021c6:	83 f8 01             	cmp    $0x1,%eax
  4021c9:	75 15                	jne    4021e0 <rio_readlineb+0x46>
  4021cb:	48 8d 45 01          	lea    0x1(%rbp),%rax
  4021cf:	0f b6 54 24 0f       	movzbl 0xf(%rsp),%edx
  4021d4:	88 55 00             	mov    %dl,0x0(%rbp)
  4021d7:	80 7c 24 0f 0a       	cmpb   $0xa,0xf(%rsp)
  4021dc:	75 0e                	jne    4021ec <rio_readlineb+0x52>
  4021de:	eb 1a                	jmp    4021fa <rio_readlineb+0x60>
  4021e0:	85 c0                	test   %eax,%eax
  4021e2:	75 22                	jne    402206 <rio_readlineb+0x6c>
  4021e4:	48 83 fb 01          	cmp    $0x1,%rbx
  4021e8:	75 13                	jne    4021fd <rio_readlineb+0x63>
  4021ea:	eb 23                	jmp    40220f <rio_readlineb+0x75>
  4021ec:	48 83 c3 01          	add    $0x1,%rbx
  4021f0:	48 89 c5             	mov    %rax,%rbp
  4021f3:	4c 39 e3             	cmp    %r12,%rbx
  4021f6:	72 bc                	jb     4021b4 <rio_readlineb+0x1a>
  4021f8:	eb 03                	jmp    4021fd <rio_readlineb+0x63>
  4021fa:	48 89 c5             	mov    %rax,%rbp
  4021fd:	c6 45 00 00          	movb   $0x0,0x0(%rbp)
  402201:	48 89 d8             	mov    %rbx,%rax
  402204:	eb 0e                	jmp    402214 <rio_readlineb+0x7a>
  402206:	48 c7 c0 ff ff ff ff 	mov    $0xffffffffffffffff,%rax
  40220d:	eb 05                	jmp    402214 <rio_readlineb+0x7a>
  40220f:	b8 00 00 00 00       	mov    $0x0,%eax
  402214:	48 83 c4 18          	add    $0x18,%rsp
  402218:	5b                   	pop    %rbx
  402219:	5d                   	pop    %rbp
  40221a:	41 5c                	pop    %r12
  40221c:	41 5d                	pop    %r13
  40221e:	c3                   	retq   

000000000040221f <urlencode>:
  40221f:	41 54                	push   %r12
  402221:	55                   	push   %rbp
  402222:	53                   	push   %rbx
  402223:	48 83 ec 10          	sub    $0x10,%rsp
  402227:	48 89 fb             	mov    %rdi,%rbx
  40222a:	48 89 f5             	mov    %rsi,%rbp
  40222d:	64 48 8b 04 25 28 00 	mov    %fs:0x28,%rax
  402234:	00 00 
  402236:	48 89 44 24 08       	mov    %rax,0x8(%rsp)
  40223b:	31 c0                	xor    %eax,%eax
  40223d:	48 c7 c1 ff ff ff ff 	mov    $0xffffffffffffffff,%rcx
  402244:	f2 ae                	repnz scas %es:(%rdi),%al
  402246:	48 f7 d1             	not    %rcx
  402249:	8d 41 ff             	lea    -0x1(%rcx),%eax
  40224c:	e9 aa 00 00 00       	jmpq   4022fb <urlencode+0xdc>
  402251:	44 0f b6 03          	movzbl (%rbx),%r8d
  402255:	41 80 f8 2a          	cmp    $0x2a,%r8b
  402259:	0f 94 c2             	sete   %dl
  40225c:	41 80 f8 2d          	cmp    $0x2d,%r8b
  402260:	0f 94 c0             	sete   %al
  402263:	08 c2                	or     %al,%dl
  402265:	75 24                	jne    40228b <urlencode+0x6c>
  402267:	41 80 f8 2e          	cmp    $0x2e,%r8b
  40226b:	74 1e                	je     40228b <urlencode+0x6c>
  40226d:	41 80 f8 5f          	cmp    $0x5f,%r8b
  402271:	74 18                	je     40228b <urlencode+0x6c>
  402273:	41 8d 40 d0          	lea    -0x30(%r8),%eax
  402277:	3c 09                	cmp    $0x9,%al
  402279:	76 10                	jbe    40228b <urlencode+0x6c>
  40227b:	41 8d 40 bf          	lea    -0x41(%r8),%eax
  40227f:	3c 19                	cmp    $0x19,%al
  402281:	76 08                	jbe    40228b <urlencode+0x6c>
  402283:	41 8d 40 9f          	lea    -0x61(%r8),%eax
  402287:	3c 19                	cmp    $0x19,%al
  402289:	77 0a                	ja     402295 <urlencode+0x76>
  40228b:	44 88 45 00          	mov    %r8b,0x0(%rbp)
  40228f:	48 8d 6d 01          	lea    0x1(%rbp),%rbp
  402293:	eb 5f                	jmp    4022f4 <urlencode+0xd5>
  402295:	41 80 f8 20          	cmp    $0x20,%r8b
  402299:	75 0a                	jne    4022a5 <urlencode+0x86>
  40229b:	c6 45 00 2b          	movb   $0x2b,0x0(%rbp)
  40229f:	48 8d 6d 01          	lea    0x1(%rbp),%rbp
  4022a3:	eb 4f                	jmp    4022f4 <urlencode+0xd5>
  4022a5:	41 8d 40 e0          	lea    -0x20(%r8),%eax
  4022a9:	3c 5f                	cmp    $0x5f,%al
  4022ab:	0f 96 c2             	setbe  %dl
  4022ae:	41 80 f8 09          	cmp    $0x9,%r8b
  4022b2:	0f 94 c0             	sete   %al
  4022b5:	08 c2                	or     %al,%dl
  4022b7:	74 50                	je     402309 <urlencode+0xea>
  4022b9:	45 0f b6 c0          	movzbl %r8b,%r8d
  4022bd:	b9 b8 35 40 00       	mov    $0x4035b8,%ecx
  4022c2:	ba 08 00 00 00       	mov    $0x8,%edx
  4022c7:	be 01 00 00 00       	mov    $0x1,%esi
  4022cc:	48 89 e7             	mov    %rsp,%rdi
  4022cf:	b8 00 00 00 00       	mov    $0x0,%eax
  4022d4:	e8 c7 eb ff ff       	callq  400ea0 <__sprintf_chk@plt>
  4022d9:	0f b6 04 24          	movzbl (%rsp),%eax
  4022dd:	88 45 00             	mov    %al,0x0(%rbp)
  4022e0:	0f b6 44 24 01       	movzbl 0x1(%rsp),%eax
  4022e5:	88 45 01             	mov    %al,0x1(%rbp)
  4022e8:	0f b6 44 24 02       	movzbl 0x2(%rsp),%eax
  4022ed:	88 45 02             	mov    %al,0x2(%rbp)
  4022f0:	48 8d 6d 03          	lea    0x3(%rbp),%rbp
  4022f4:	48 83 c3 01          	add    $0x1,%rbx
  4022f8:	44 89 e0             	mov    %r12d,%eax
  4022fb:	44 8d 60 ff          	lea    -0x1(%rax),%r12d
  4022ff:	85 c0                	test   %eax,%eax
  402301:	0f 85 4a ff ff ff    	jne    402251 <urlencode+0x32>
  402307:	eb 05                	jmp    40230e <urlencode+0xef>
  402309:	b8 ff ff ff ff       	mov    $0xffffffff,%eax
  40230e:	48 8b 74 24 08       	mov    0x8(%rsp),%rsi
  402313:	64 48 33 34 25 28 00 	xor    %fs:0x28,%rsi
  40231a:	00 00 
  40231c:	74 05                	je     402323 <urlencode+0x104>
  40231e:	e8 dd e9 ff ff       	callq  400d00 <__stack_chk_fail@plt>
  402323:	48 83 c4 10          	add    $0x10,%rsp
  402327:	5b                   	pop    %rbx
  402328:	5d                   	pop    %rbp
  402329:	41 5c                	pop    %r12
  40232b:	c3                   	retq   

000000000040232c <submitr>:
  40232c:	41 57                	push   %r15
  40232e:	41 56                	push   %r14
  402330:	41 55                	push   %r13
  402332:	41 54                	push   %r12
  402334:	55                   	push   %rbp
  402335:	53                   	push   %rbx
  402336:	48 81 ec 58 a0 00 00 	sub    $0xa058,%rsp
  40233d:	49 89 fc             	mov    %rdi,%r12
  402340:	89 74 24 04          	mov    %esi,0x4(%rsp)
  402344:	49 89 d7             	mov    %rdx,%r15
  402347:	49 89 ce             	mov    %rcx,%r14
  40234a:	4c 89 44 24 08       	mov    %r8,0x8(%rsp)
  40234f:	4d 89 cd             	mov    %r9,%r13
  402352:	48 8b 9c 24 90 a0 00 	mov    0xa090(%rsp),%rbx
  402359:	00 
  40235a:	64 48 8b 04 25 28 00 	mov    %fs:0x28,%rax
  402361:	00 00 
  402363:	48 89 84 24 48 a0 00 	mov    %rax,0xa048(%rsp)
  40236a:	00 
  40236b:	31 c0                	xor    %eax,%eax
  40236d:	c7 44 24 1c 00 00 00 	movl   $0x0,0x1c(%rsp)
  402374:	00 
  402375:	ba 00 00 00 00       	mov    $0x0,%edx
  40237a:	be 01 00 00 00       	mov    $0x1,%esi
  40237f:	bf 02 00 00 00       	mov    $0x2,%edi
  402384:	e8 27 eb ff ff       	callq  400eb0 <socket@plt>
  402389:	85 c0                	test   %eax,%eax
  40238b:	79 4e                	jns    4023db <submitr+0xaf>
  40238d:	48 b8 45 72 72 6f 72 	movabs $0x43203a726f727245,%rax
  402394:	3a 20 43 
  402397:	48 89 03             	mov    %rax,(%rbx)
  40239a:	48 b8 6c 69 65 6e 74 	movabs $0x6e7520746e65696c,%rax
  4023a1:	20 75 6e 
  4023a4:	48 89 43 08          	mov    %rax,0x8(%rbx)
  4023a8:	48 b8 61 62 6c 65 20 	movabs $0x206f7420656c6261,%rax
  4023af:	74 6f 20 
  4023b2:	48 89 43 10          	mov    %rax,0x10(%rbx)
  4023b6:	48 b8 63 72 65 61 74 	movabs $0x7320657461657263,%rax
  4023bd:	65 20 73 
  4023c0:	48 89 43 18          	mov    %rax,0x18(%rbx)
  4023c4:	c7 43 20 6f 63 6b 65 	movl   $0x656b636f,0x20(%rbx)
  4023cb:	66 c7 43 24 74 00    	movw   $0x74,0x24(%rbx)
  4023d1:	b8 ff ff ff ff       	mov    $0xffffffff,%eax
  4023d6:	e9 88 06 00 00       	jmpq   402a63 <submitr+0x737>
  4023db:	89 c5                	mov    %eax,%ebp
  4023dd:	4c 89 e7             	mov    %r12,%rdi
  4023e0:	e8 9b e9 ff ff       	callq  400d80 <gethostbyname@plt>
  4023e5:	48 85 c0             	test   %rax,%rax
  4023e8:	75 67                	jne    402451 <submitr+0x125>
  4023ea:	48 b8 45 72 72 6f 72 	movabs $0x44203a726f727245,%rax
  4023f1:	3a 20 44 
  4023f4:	48 89 03             	mov    %rax,(%rbx)
  4023f7:	48 b8 4e 53 20 69 73 	movabs $0x6e7520736920534e,%rax
  4023fe:	20 75 6e 
  402401:	48 89 43 08          	mov    %rax,0x8(%rbx)
  402405:	48 b8 61 62 6c 65 20 	movabs $0x206f7420656c6261,%rax
  40240c:	74 6f 20 
  40240f:	48 89 43 10          	mov    %rax,0x10(%rbx)
  402413:	48 b8 72 65 73 6f 6c 	movabs $0x2065766c6f736572,%rax
  40241a:	76 65 20 
  40241d:	48 89 43 18          	mov    %rax,0x18(%rbx)
  402421:	48 b8 73 65 72 76 65 	movabs $0x6120726576726573,%rax
  402428:	72 20 61 
  40242b:	48 89 43 20          	mov    %rax,0x20(%rbx)
  40242f:	c7 43 28 64 64 72 65 	movl   $0x65726464,0x28(%rbx)
  402436:	66 c7 43 2c 73 73    	movw   $0x7373,0x2c(%rbx)
  40243c:	c6 43 2e 00          	movb   $0x0,0x2e(%rbx)
  402440:	89 ef                	mov    %ebp,%edi
  402442:	e8 f9 e8 ff ff       	callq  400d40 <close@plt>
  402447:	b8 ff ff ff ff       	mov    $0xffffffff,%eax
  40244c:	e9 12 06 00 00       	jmpq   402a63 <submitr+0x737>
  402451:	48 c7 44 24 20 00 00 	movq   $0x0,0x20(%rsp)
  402458:	00 00 
  40245a:	48 c7 44 24 28 00 00 	movq   $0x0,0x28(%rsp)
  402461:	00 00 
  402463:	66 c7 44 24 20 02 00 	movw   $0x2,0x20(%rsp)
  40246a:	48 63 50 14          	movslq 0x14(%rax),%rdx
  40246e:	48 8b 40 18          	mov    0x18(%rax),%rax
  402472:	48 8b 30             	mov    (%rax),%rsi
  402475:	48 8d 7c 24 24       	lea    0x24(%rsp),%rdi
  40247a:	b9 0c 00 00 00       	mov    $0xc,%ecx
  40247f:	e8 0c e9 ff ff       	callq  400d90 <__memmove_chk@plt>
  402484:	0f b7 44 24 04       	movzwl 0x4(%rsp),%eax
  402489:	66 c1 c8 08          	ror    $0x8,%ax
  40248d:	66 89 44 24 22       	mov    %ax,0x22(%rsp)
  402492:	ba 10 00 00 00       	mov    $0x10,%edx
  402497:	48 8d 74 24 20       	lea    0x20(%rsp),%rsi
  40249c:	89 ef                	mov    %ebp,%edi
  40249e:	e8 dd e9 ff ff       	callq  400e80 <connect@plt>
  4024a3:	85 c0                	test   %eax,%eax
  4024a5:	79 59                	jns    402500 <submitr+0x1d4>
  4024a7:	48 b8 45 72 72 6f 72 	movabs $0x55203a726f727245,%rax
  4024ae:	3a 20 55 
  4024b1:	48 89 03             	mov    %rax,(%rbx)
  4024b4:	48 b8 6e 61 62 6c 65 	movabs $0x6f7420656c62616e,%rax
  4024bb:	20 74 6f 
  4024be:	48 89 43 08          	mov    %rax,0x8(%rbx)
  4024c2:	48 b8 20 63 6f 6e 6e 	movabs $0x7463656e6e6f6320,%rax
  4024c9:	65 63 74 
  4024cc:	48 89 43 10          	mov    %rax,0x10(%rbx)
  4024d0:	48 b8 20 74 6f 20 74 	movabs $0x20656874206f7420,%rax
  4024d7:	68 65 20 
  4024da:	48 89 43 18          	mov    %rax,0x18(%rbx)
  4024de:	c7 43 20 73 65 72 76 	movl   $0x76726573,0x20(%rbx)
  4024e5:	66 c7 43 24 65 72    	movw   $0x7265,0x24(%rbx)
  4024eb:	c6 43 26 00          	movb   $0x0,0x26(%rbx)
  4024ef:	89 ef                	mov    %ebp,%edi
  4024f1:	e8 4a e8 ff ff       	callq  400d40 <close@plt>
  4024f6:	b8 ff ff ff ff       	mov    $0xffffffff,%eax
  4024fb:	e9 63 05 00 00       	jmpq   402a63 <submitr+0x737>
  402500:	48 c7 c6 ff ff ff ff 	mov    $0xffffffffffffffff,%rsi
  402507:	b8 00 00 00 00       	mov    $0x0,%eax
  40250c:	48 89 f1             	mov    %rsi,%rcx
  40250f:	4c 89 ef             	mov    %r13,%rdi
  402512:	f2 ae                	repnz scas %es:(%rdi),%al
  402514:	48 f7 d1             	not    %rcx
  402517:	48 89 ca             	mov    %rcx,%rdx
  40251a:	48 89 f1             	mov    %rsi,%rcx
  40251d:	4c 89 ff             	mov    %r15,%rdi
  402520:	f2 ae                	repnz scas %es:(%rdi),%al
  402522:	48 f7 d1             	not    %rcx
  402525:	49 89 c8             	mov    %rcx,%r8
  402528:	48 89 f1             	mov    %rsi,%rcx
  40252b:	4c 89 f7             	mov    %r14,%rdi
  40252e:	f2 ae                	repnz scas %es:(%rdi),%al
  402530:	48 f7 d1             	not    %rcx
  402533:	4d 8d 44 08 fe       	lea    -0x2(%r8,%rcx,1),%r8
  402538:	48 89 f1             	mov    %rsi,%rcx
  40253b:	48 8b 7c 24 08       	mov    0x8(%rsp),%rdi
  402540:	f2 ae                	repnz scas %es:(%rdi),%al
  402542:	48 89 c8             	mov    %rcx,%rax
  402545:	48 f7 d0             	not    %rax
  402548:	49 8d 4c 00 ff       	lea    -0x1(%r8,%rax,1),%rcx
  40254d:	48 8d 44 52 fd       	lea    -0x3(%rdx,%rdx,2),%rax
  402552:	48 8d 84 01 80 00 00 	lea    0x80(%rcx,%rax,1),%rax
  402559:	00 
  40255a:	48 3d 00 20 00 00    	cmp    $0x2000,%rax
  402560:	76 72                	jbe    4025d4 <submitr+0x2a8>
  402562:	48 b8 45 72 72 6f 72 	movabs $0x52203a726f727245,%rax
  402569:	3a 20 52 
  40256c:	48 89 03             	mov    %rax,(%rbx)
  40256f:	48 b8 65 73 75 6c 74 	movabs $0x747320746c757365,%rax
  402576:	20 73 74 
  402579:	48 89 43 08          	mov    %rax,0x8(%rbx)
  40257d:	48 b8 72 69 6e 67 20 	movabs $0x6f6f7420676e6972,%rax
  402584:	74 6f 6f 
  402587:	48 89 43 10          	mov    %rax,0x10(%rbx)
  40258b:	48 b8 20 6c 61 72 67 	movabs $0x202e656772616c20,%rax
  402592:	65 2e 20 
  402595:	48 89 43 18          	mov    %rax,0x18(%rbx)
  402599:	48 b8 49 6e 63 72 65 	movabs $0x6573616572636e49,%rax
  4025a0:	61 73 65 
  4025a3:	48 89 43 20          	mov    %rax,0x20(%rbx)
  4025a7:	48 b8 20 53 55 42 4d 	movabs $0x5254494d42555320,%rax
  4025ae:	49 54 52 
  4025b1:	48 89 43 28          	mov    %rax,0x28(%rbx)
  4025b5:	48 b8 5f 4d 41 58 42 	movabs $0x46554258414d5f,%rax
  4025bc:	55 46 00 
  4025bf:	48 89 43 30          	mov    %rax,0x30(%rbx)
  4025c3:	89 ef                	mov    %ebp,%edi
  4025c5:	e8 76 e7 ff ff       	callq  400d40 <close@plt>
  4025ca:	b8 ff ff ff ff       	mov    $0xffffffff,%eax
  4025cf:	e9 8f 04 00 00       	jmpq   402a63 <submitr+0x737>
  4025d4:	48 8d b4 24 30 20 00 	lea    0x2030(%rsp),%rsi
  4025db:	00 
  4025dc:	b9 00 04 00 00       	mov    $0x400,%ecx
  4025e1:	b8 00 00 00 00       	mov    $0x0,%eax
  4025e6:	48 89 f7             	mov    %rsi,%rdi
  4025e9:	f3 48 ab             	rep stos %rax,%es:(%rdi)
  4025ec:	4c 89 ef             	mov    %r13,%rdi
  4025ef:	e8 2b fc ff ff       	callq  40221f <urlencode>
  4025f4:	85 c0                	test   %eax,%eax
  4025f6:	0f 89 8a 00 00 00    	jns    402686 <submitr+0x35a>
  4025fc:	48 b8 45 72 72 6f 72 	movabs $0x52203a726f727245,%rax
  402603:	3a 20 52 
  402606:	48 89 03             	mov    %rax,(%rbx)
  402609:	48 b8 65 73 75 6c 74 	movabs $0x747320746c757365,%rax
  402610:	20 73 74 
  402613:	48 89 43 08          	mov    %rax,0x8(%rbx)
  402617:	48 b8 72 69 6e 67 20 	movabs $0x6e6f6320676e6972,%rax
  40261e:	63 6f 6e 
  402621:	48 89 43 10          	mov    %rax,0x10(%rbx)
  402625:	48 b8 74 61 69 6e 73 	movabs $0x6e6120736e696174,%rax
  40262c:	20 61 6e 
  40262f:	48 89 43 18          	mov    %rax,0x18(%rbx)
  402633:	48 b8 20 69 6c 6c 65 	movabs $0x6c6167656c6c6920,%rax
  40263a:	67 61 6c 
  40263d:	48 89 43 20          	mov    %rax,0x20(%rbx)
  402641:	48 b8 20 6f 72 20 75 	movabs $0x72706e7520726f20,%rax
  402648:	6e 70 72 
  40264b:	48 89 43 28          	mov    %rax,0x28(%rbx)
  40264f:	48 b8 69 6e 74 61 62 	movabs $0x20656c6261746e69,%rax
  402656:	6c 65 20 
  402659:	48 89 43 30          	mov    %rax,0x30(%rbx)
  40265d:	48 b8 63 68 61 72 61 	movabs $0x6574636172616863,%rax
  402664:	63 74 65 
  402667:	48 89 43 38          	mov    %rax,0x38(%rbx)
  40266b:	66 c7 43 40 72 2e    	movw   $0x2e72,0x40(%rbx)
  402671:	c6 43 42 00          	movb   $0x0,0x42(%rbx)
  402675:	89 ef                	mov    %ebp,%edi
  402677:	e8 c4 e6 ff ff       	callq  400d40 <close@plt>
  40267c:	b8 ff ff ff ff       	mov    $0xffffffff,%eax
  402681:	e9 dd 03 00 00       	jmpq   402a63 <submitr+0x737>
  402686:	4c 8d 6c 24 30       	lea    0x30(%rsp),%r13
  40268b:	41 54                	push   %r12
  40268d:	48 8d 84 24 38 20 00 	lea    0x2038(%rsp),%rax
  402694:	00 
  402695:	50                   	push   %rax
  402696:	4d 89 f9             	mov    %r15,%r9
  402699:	4d 89 f0             	mov    %r14,%r8
  40269c:	b9 48 35 40 00       	mov    $0x403548,%ecx
  4026a1:	ba 00 20 00 00       	mov    $0x2000,%edx
  4026a6:	be 01 00 00 00       	mov    $0x1,%esi
  4026ab:	4c 89 ef             	mov    %r13,%rdi
  4026ae:	b8 00 00 00 00       	mov    $0x0,%eax
  4026b3:	e8 e8 e7 ff ff       	callq  400ea0 <__sprintf_chk@plt>
  4026b8:	b8 00 00 00 00       	mov    $0x0,%eax
  4026bd:	48 c7 c1 ff ff ff ff 	mov    $0xffffffffffffffff,%rcx
  4026c4:	4c 89 ef             	mov    %r13,%rdi
  4026c7:	f2 ae                	repnz scas %es:(%rdi),%al
  4026c9:	48 f7 d1             	not    %rcx
  4026cc:	48 8d 51 ff          	lea    -0x1(%rcx),%rdx
  4026d0:	4c 89 ee             	mov    %r13,%rsi
  4026d3:	89 ef                	mov    %ebp,%edi
  4026d5:	e8 d9 f9 ff ff       	callq  4020b3 <rio_writen>
  4026da:	48 83 c4 10          	add    $0x10,%rsp
  4026de:	48 85 c0             	test   %rax,%rax
  4026e1:	79 6e                	jns    402751 <submitr+0x425>
  4026e3:	48 b8 45 72 72 6f 72 	movabs $0x43203a726f727245,%rax
  4026ea:	3a 20 43 
  4026ed:	48 89 03             	mov    %rax,(%rbx)
  4026f0:	48 b8 6c 69 65 6e 74 	movabs $0x6e7520746e65696c,%rax
  4026f7:	20 75 6e 
  4026fa:	48 89 43 08          	mov    %rax,0x8(%rbx)
  4026fe:	48 b8 61 62 6c 65 20 	movabs $0x206f7420656c6261,%rax
  402705:	74 6f 20 
  402708:	48 89 43 10          	mov    %rax,0x10(%rbx)
  40270c:	48 b8 77 72 69 74 65 	movabs $0x6f74206574697277,%rax
  402713:	20 74 6f 
  402716:	48 89 43 18          	mov    %rax,0x18(%rbx)
  40271a:	48 b8 20 74 68 65 20 	movabs $0x7365722065687420,%rax
  402721:	72 65 73 
  402724:	48 89 43 20          	mov    %rax,0x20(%rbx)
  402728:	48 b8 75 6c 74 20 73 	movabs $0x7672657320746c75,%rax
  40272f:	65 72 76 
  402732:	48 89 43 28          	mov    %rax,0x28(%rbx)
  402736:	66 c7 43 30 65 72    	movw   $0x7265,0x30(%rbx)
  40273c:	c6 43 32 00          	movb   $0x0,0x32(%rbx)
  402740:	89 ef                	mov    %ebp,%edi
  402742:	e8 f9 e5 ff ff       	callq  400d40 <close@plt>
  402747:	b8 ff ff ff ff       	mov    $0xffffffff,%eax
  40274c:	e9 12 03 00 00       	jmpq   402a63 <submitr+0x737>
  402751:	89 ee                	mov    %ebp,%esi
  402753:	48 8d bc 24 30 80 00 	lea    0x8030(%rsp),%rdi
  40275a:	00 
  40275b:	e8 13 f9 ff ff       	callq  402073 <rio_readinitb>
  402760:	ba 00 20 00 00       	mov    $0x2000,%edx
  402765:	48 8d 74 24 30       	lea    0x30(%rsp),%rsi
  40276a:	48 8d bc 24 30 80 00 	lea    0x8030(%rsp),%rdi
  402771:	00 
  402772:	e8 23 fa ff ff       	callq  40219a <rio_readlineb>
  402777:	48 85 c0             	test   %rax,%rax
  40277a:	7f 7d                	jg     4027f9 <submitr+0x4cd>
  40277c:	48 b8 45 72 72 6f 72 	movabs $0x43203a726f727245,%rax
  402783:	3a 20 43 
  402786:	48 89 03             	mov    %rax,(%rbx)
  402789:	48 b8 6c 69 65 6e 74 	movabs $0x6e7520746e65696c,%rax
  402790:	20 75 6e 
  402793:	48 89 43 08          	mov    %rax,0x8(%rbx)
  402797:	48 b8 61 62 6c 65 20 	movabs $0x206f7420656c6261,%rax
  40279e:	74 6f 20 
  4027a1:	48 89 43 10          	mov    %rax,0x10(%rbx)
  4027a5:	48 b8 72 65 61 64 20 	movabs $0x7269662064616572,%rax
  4027ac:	66 69 72 
  4027af:	48 89 43 18          	mov    %rax,0x18(%rbx)
  4027b3:	48 b8 73 74 20 68 65 	movabs $0x6564616568207473,%rax
  4027ba:	61 64 65 
  4027bd:	48 89 43 20          	mov    %rax,0x20(%rbx)
  4027c1:	48 b8 72 20 66 72 6f 	movabs $0x72206d6f72662072,%rax
  4027c8:	6d 20 72 
  4027cb:	48 89 43 28          	mov    %rax,0x28(%rbx)
  4027cf:	48 b8 65 73 75 6c 74 	movabs $0x657320746c757365,%rax
  4027d6:	20 73 65 
  4027d9:	48 89 43 30          	mov    %rax,0x30(%rbx)
  4027dd:	c7 43 38 72 76 65 72 	movl   $0x72657672,0x38(%rbx)
  4027e4:	c6 43 3c 00          	movb   $0x0,0x3c(%rbx)
  4027e8:	89 ef                	mov    %ebp,%edi
  4027ea:	e8 51 e5 ff ff       	callq  400d40 <close@plt>
  4027ef:	b8 ff ff ff ff       	mov    $0xffffffff,%eax
  4027f4:	e9 6a 02 00 00       	jmpq   402a63 <submitr+0x737>
  4027f9:	4c 8d 84 24 30 60 00 	lea    0x6030(%rsp),%r8
  402800:	00 
  402801:	48 8d 4c 24 1c       	lea    0x1c(%rsp),%rcx
  402806:	48 8d 94 24 30 40 00 	lea    0x4030(%rsp),%rdx
  40280d:	00 
  40280e:	be bf 35 40 00       	mov    $0x4035bf,%esi
  402813:	48 8d 7c 24 30       	lea    0x30(%rsp),%rdi
  402818:	b8 00 00 00 00       	mov    $0x0,%eax
  40281d:	e8 de e5 ff ff       	callq  400e00 <__isoc99_sscanf@plt>
  402822:	e9 95 00 00 00       	jmpq   4028bc <submitr+0x590>
  402827:	ba 00 20 00 00       	mov    $0x2000,%edx
  40282c:	48 8d 74 24 30       	lea    0x30(%rsp),%rsi
  402831:	48 8d bc 24 30 80 00 	lea    0x8030(%rsp),%rdi
  402838:	00 
  402839:	e8 5c f9 ff ff       	callq  40219a <rio_readlineb>
  40283e:	48 85 c0             	test   %rax,%rax
  402841:	7f 79                	jg     4028bc <submitr+0x590>
  402843:	48 b8 45 72 72 6f 72 	movabs $0x43203a726f727245,%rax
  40284a:	3a 20 43 
  40284d:	48 89 03             	mov    %rax,(%rbx)
  402850:	48 b8 6c 69 65 6e 74 	movabs $0x6e7520746e65696c,%rax
  402857:	20 75 6e 
  40285a:	48 89 43 08          	mov    %rax,0x8(%rbx)
  40285e:	48 b8 61 62 6c 65 20 	movabs $0x206f7420656c6261,%rax
  402865:	74 6f 20 
  402868:	48 89 43 10          	mov    %rax,0x10(%rbx)
  40286c:	48 b8 72 65 61 64 20 	movabs $0x6165682064616572,%rax
  402873:	68 65 61 
  402876:	48 89 43 18          	mov    %rax,0x18(%rbx)
  40287a:	48 b8 64 65 72 73 20 	movabs $0x6f72662073726564,%rax
  402881:	66 72 6f 
  402884:	48 89 43 20          	mov    %rax,0x20(%rbx)
  402888:	48 b8 6d 20 74 68 65 	movabs $0x657220656874206d,%rax
  40288f:	20 72 65 
  402892:	48 89 43 28          	mov    %rax,0x28(%rbx)
  402896:	48 b8 73 75 6c 74 20 	movabs $0x72657320746c7573,%rax
  40289d:	73 65 72 
  4028a0:	48 89 43 30          	mov    %rax,0x30(%rbx)
  4028a4:	c7 43 38 76 65 72 00 	movl   $0x726576,0x38(%rbx)
  4028ab:	89 ef                	mov    %ebp,%edi
  4028ad:	e8 8e e4 ff ff       	callq  400d40 <close@plt>
  4028b2:	b8 ff ff ff ff       	mov    $0xffffffff,%eax
  4028b7:	e9 a7 01 00 00       	jmpq   402a63 <submitr+0x737>
  4028bc:	0f b6 54 24 30       	movzbl 0x30(%rsp),%edx
  4028c1:	b8 0d 00 00 00       	mov    $0xd,%eax
  4028c6:	29 d0                	sub    %edx,%eax
  4028c8:	75 15                	jne    4028df <submitr+0x5b3>
  4028ca:	0f b6 54 24 31       	movzbl 0x31(%rsp),%edx
  4028cf:	b8 0a 00 00 00       	mov    $0xa,%eax
  4028d4:	29 d0                	sub    %edx,%eax
  4028d6:	75 07                	jne    4028df <submitr+0x5b3>
  4028d8:	0f b6 44 24 32       	movzbl 0x32(%rsp),%eax
  4028dd:	f7 d8                	neg    %eax
  4028df:	85 c0                	test   %eax,%eax
  4028e1:	0f 85 40 ff ff ff    	jne    402827 <submitr+0x4fb>
  4028e7:	ba 00 20 00 00       	mov    $0x2000,%edx
  4028ec:	48 8d 74 24 30       	lea    0x30(%rsp),%rsi
  4028f1:	48 8d bc 24 30 80 00 	lea    0x8030(%rsp),%rdi
  4028f8:	00 
  4028f9:	e8 9c f8 ff ff       	callq  40219a <rio_readlineb>
  4028fe:	48 85 c0             	test   %rax,%rax
  402901:	0f 8f 83 00 00 00    	jg     40298a <submitr+0x65e>
  402907:	48 b8 45 72 72 6f 72 	movabs $0x43203a726f727245,%rax
  40290e:	3a 20 43 
  402911:	48 89 03             	mov    %rax,(%rbx)
  402914:	48 b8 6c 69 65 6e 74 	movabs $0x6e7520746e65696c,%rax
  40291b:	20 75 6e 
  40291e:	48 89 43 08          	mov    %rax,0x8(%rbx)
  402922:	48 b8 61 62 6c 65 20 	movabs $0x206f7420656c6261,%rax
  402929:	74 6f 20 
  40292c:	48 89 43 10          	mov    %rax,0x10(%rbx)
  402930:	48 b8 72 65 61 64 20 	movabs $0x6174732064616572,%rax
  402937:	73 74 61 
  40293a:	48 89 43 18          	mov    %rax,0x18(%rbx)
  40293e:	48 b8 74 75 73 20 6d 	movabs $0x7373656d20737574,%rax
  402945:	65 73 73 
  402948:	48 89 43 20          	mov    %rax,0x20(%rbx)
  40294c:	48 b8 61 67 65 20 66 	movabs $0x6d6f726620656761,%rax
  402953:	72 6f 6d 
  402956:	48 89 43 28          	mov    %rax,0x28(%rbx)
  40295a:	48 b8 20 72 65 73 75 	movabs $0x20746c7573657220,%rax
  402961:	6c 74 20 
  402964:	48 89 43 30          	mov    %rax,0x30(%rbx)
  402968:	c7 43 38 73 65 72 76 	movl   $0x76726573,0x38(%rbx)
  40296f:	66 c7 43 3c 65 72    	movw   $0x7265,0x3c(%rbx)
  402975:	c6 43 3e 00          	movb   $0x0,0x3e(%rbx)
  402979:	89 ef                	mov    %ebp,%edi
  40297b:	e8 c0 e3 ff ff       	callq  400d40 <close@plt>
  402980:	b8 ff ff ff ff       	mov    $0xffffffff,%eax
  402985:	e9 d9 00 00 00       	jmpq   402a63 <submitr+0x737>
  40298a:	44 8b 44 24 1c       	mov    0x1c(%rsp),%r8d
  40298f:	41 81 f8 c8 00 00 00 	cmp    $0xc8,%r8d
  402996:	74 37                	je     4029cf <submitr+0x6a3>
  402998:	4c 8d 8c 24 30 60 00 	lea    0x6030(%rsp),%r9
  40299f:	00 
  4029a0:	b9 88 35 40 00       	mov    $0x403588,%ecx
  4029a5:	48 c7 c2 ff ff ff ff 	mov    $0xffffffffffffffff,%rdx
  4029ac:	be 01 00 00 00       	mov    $0x1,%esi
  4029b1:	48 89 df             	mov    %rbx,%rdi
  4029b4:	b8 00 00 00 00       	mov    $0x0,%eax
  4029b9:	e8 e2 e4 ff ff       	callq  400ea0 <__sprintf_chk@plt>
  4029be:	89 ef                	mov    %ebp,%edi
  4029c0:	e8 7b e3 ff ff       	callq  400d40 <close@plt>
  4029c5:	b8 ff ff ff ff       	mov    $0xffffffff,%eax
  4029ca:	e9 94 00 00 00       	jmpq   402a63 <submitr+0x737>
  4029cf:	48 8d 74 24 30       	lea    0x30(%rsp),%rsi
  4029d4:	48 89 df             	mov    %rbx,%rdi
  4029d7:	e8 f4 e2 ff ff       	callq  400cd0 <strcpy@plt>
  4029dc:	89 ef                	mov    %ebp,%edi
  4029de:	e8 5d e3 ff ff       	callq  400d40 <close@plt>
  4029e3:	0f b6 03             	movzbl (%rbx),%eax
  4029e6:	ba 4f 00 00 00       	mov    $0x4f,%edx
  4029eb:	29 c2                	sub    %eax,%edx
  4029ed:	75 22                	jne    402a11 <submitr+0x6e5>
  4029ef:	0f b6 4b 01          	movzbl 0x1(%rbx),%ecx
  4029f3:	b8 4b 00 00 00       	mov    $0x4b,%eax
  4029f8:	29 c8                	sub    %ecx,%eax
  4029fa:	75 17                	jne    402a13 <submitr+0x6e7>
  4029fc:	0f b6 4b 02          	movzbl 0x2(%rbx),%ecx
  402a00:	b8 0a 00 00 00       	mov    $0xa,%eax
  402a05:	29 c8                	sub    %ecx,%eax
  402a07:	75 0a                	jne    402a13 <submitr+0x6e7>
  402a09:	0f b6 43 03          	movzbl 0x3(%rbx),%eax
  402a0d:	f7 d8                	neg    %eax
  402a0f:	eb 02                	jmp    402a13 <submitr+0x6e7>
  402a11:	89 d0                	mov    %edx,%eax
  402a13:	85 c0                	test   %eax,%eax
  402a15:	74 40                	je     402a57 <submitr+0x72b>
  402a17:	bf d0 35 40 00       	mov    $0x4035d0,%edi
  402a1c:	b9 05 00 00 00       	mov    $0x5,%ecx
  402a21:	48 89 de             	mov    %rbx,%rsi
  402a24:	f3 a6                	repz cmpsb %es:(%rdi),%ds:(%rsi)
  402a26:	0f 97 c0             	seta   %al
  402a29:	0f 92 c1             	setb   %cl
  402a2c:	29 c8                	sub    %ecx,%eax
  402a2e:	0f be c0             	movsbl %al,%eax
  402a31:	85 c0                	test   %eax,%eax
  402a33:	74 2e                	je     402a63 <submitr+0x737>
  402a35:	85 d2                	test   %edx,%edx
  402a37:	75 13                	jne    402a4c <submitr+0x720>
  402a39:	0f b6 43 01          	movzbl 0x1(%rbx),%eax
  402a3d:	ba 4b 00 00 00       	mov    $0x4b,%edx
  402a42:	29 c2                	sub    %eax,%edx
  402a44:	75 06                	jne    402a4c <submitr+0x720>
  402a46:	0f b6 53 02          	movzbl 0x2(%rbx),%edx
  402a4a:	f7 da                	neg    %edx
  402a4c:	85 d2                	test   %edx,%edx
  402a4e:	75 0e                	jne    402a5e <submitr+0x732>
  402a50:	b8 00 00 00 00       	mov    $0x0,%eax
  402a55:	eb 0c                	jmp    402a63 <submitr+0x737>
  402a57:	b8 00 00 00 00       	mov    $0x0,%eax
  402a5c:	eb 05                	jmp    402a63 <submitr+0x737>
  402a5e:	b8 ff ff ff ff       	mov    $0xffffffff,%eax
  402a63:	48 8b 9c 24 48 a0 00 	mov    0xa048(%rsp),%rbx
  402a6a:	00 
  402a6b:	64 48 33 1c 25 28 00 	xor    %fs:0x28,%rbx
  402a72:	00 00 
  402a74:	74 05                	je     402a7b <submitr+0x74f>
  402a76:	e8 85 e2 ff ff       	callq  400d00 <__stack_chk_fail@plt>
  402a7b:	48 81 c4 58 a0 00 00 	add    $0xa058,%rsp
  402a82:	5b                   	pop    %rbx
  402a83:	5d                   	pop    %rbp
  402a84:	41 5c                	pop    %r12
  402a86:	41 5d                	pop    %r13
  402a88:	41 5e                	pop    %r14
  402a8a:	41 5f                	pop    %r15
  402a8c:	c3                   	retq   

0000000000402a8d <init_timeout>:
  402a8d:	85 ff                	test   %edi,%edi
  402a8f:	74 23                	je     402ab4 <init_timeout+0x27>
  402a91:	53                   	push   %rbx
  402a92:	89 fb                	mov    %edi,%ebx
  402a94:	85 ff                	test   %edi,%edi
  402a96:	79 05                	jns    402a9d <init_timeout+0x10>
  402a98:	bb 00 00 00 00       	mov    $0x0,%ebx
  402a9d:	be 85 20 40 00       	mov    $0x402085,%esi
  402aa2:	bf 0e 00 00 00       	mov    $0xe,%edi
  402aa7:	e8 c4 e2 ff ff       	callq  400d70 <signal@plt>
  402aac:	89 df                	mov    %ebx,%edi
  402aae:	e8 7d e2 ff ff       	callq  400d30 <alarm@plt>
  402ab3:	5b                   	pop    %rbx
  402ab4:	f3 c3                	repz retq 

0000000000402ab6 <init_driver>:
  402ab6:	55                   	push   %rbp
  402ab7:	53                   	push   %rbx
  402ab8:	48 83 ec 28          	sub    $0x28,%rsp
  402abc:	48 89 fd             	mov    %rdi,%rbp
  402abf:	64 48 8b 04 25 28 00 	mov    %fs:0x28,%rax
  402ac6:	00 00 
  402ac8:	48 89 44 24 18       	mov    %rax,0x18(%rsp)
  402acd:	31 c0                	xor    %eax,%eax
  402acf:	be 01 00 00 00       	mov    $0x1,%esi
  402ad4:	bf 0d 00 00 00       	mov    $0xd,%edi
  402ad9:	e8 92 e2 ff ff       	callq  400d70 <signal@plt>
  402ade:	be 01 00 00 00       	mov    $0x1,%esi
  402ae3:	bf 1d 00 00 00       	mov    $0x1d,%edi
  402ae8:	e8 83 e2 ff ff       	callq  400d70 <signal@plt>
  402aed:	be 01 00 00 00       	mov    $0x1,%esi
  402af2:	bf 1d 00 00 00       	mov    $0x1d,%edi
  402af7:	e8 74 e2 ff ff       	callq  400d70 <signal@plt>
  402afc:	ba 00 00 00 00       	mov    $0x0,%edx
  402b01:	be 01 00 00 00       	mov    $0x1,%esi
  402b06:	bf 02 00 00 00       	mov    $0x2,%edi
  402b0b:	e8 a0 e3 ff ff       	callq  400eb0 <socket@plt>
  402b10:	85 c0                	test   %eax,%eax
  402b12:	79 4f                	jns    402b63 <init_driver+0xad>
  402b14:	48 b8 45 72 72 6f 72 	movabs $0x43203a726f727245,%rax
  402b1b:	3a 20 43 
  402b1e:	48 89 45 00          	mov    %rax,0x0(%rbp)
  402b22:	48 b8 6c 69 65 6e 74 	movabs $0x6e7520746e65696c,%rax
  402b29:	20 75 6e 
  402b2c:	48 89 45 08          	mov    %rax,0x8(%rbp)
  402b30:	48 b8 61 62 6c 65 20 	movabs $0x206f7420656c6261,%rax
  402b37:	74 6f 20 
  402b3a:	48 89 45 10          	mov    %rax,0x10(%rbp)
  402b3e:	48 b8 63 72 65 61 74 	movabs $0x7320657461657263,%rax
  402b45:	65 20 73 
  402b48:	48 89 45 18          	mov    %rax,0x18(%rbp)
  402b4c:	c7 45 20 6f 63 6b 65 	movl   $0x656b636f,0x20(%rbp)
  402b53:	66 c7 45 24 74 00    	movw   $0x74,0x24(%rbp)
  402b59:	b8 ff ff ff ff       	mov    $0xffffffff,%eax
  402b5e:	e9 2a 01 00 00       	jmpq   402c8d <init_driver+0x1d7>
  402b63:	89 c3                	mov    %eax,%ebx
  402b65:	bf 0f 31 40 00       	mov    $0x40310f,%edi
  402b6a:	e8 11 e2 ff ff       	callq  400d80 <gethostbyname@plt>
  402b6f:	48 85 c0             	test   %rax,%rax
  402b72:	75 68                	jne    402bdc <init_driver+0x126>
  402b74:	48 b8 45 72 72 6f 72 	movabs $0x44203a726f727245,%rax
  402b7b:	3a 20 44 
  402b7e:	48 89 45 00          	mov    %rax,0x0(%rbp)
  402b82:	48 b8 4e 53 20 69 73 	movabs $0x6e7520736920534e,%rax
  402b89:	20 75 6e 
  402b8c:	48 89 45 08          	mov    %rax,0x8(%rbp)
  402b90:	48 b8 61 62 6c 65 20 	movabs $0x206f7420656c6261,%rax
  402b97:	74 6f 20 
  402b9a:	48 89 45 10          	mov    %rax,0x10(%rbp)
  402b9e:	48 b8 72 65 73 6f 6c 	movabs $0x2065766c6f736572,%rax
  402ba5:	76 65 20 
  402ba8:	48 89 45 18          	mov    %rax,0x18(%rbp)
  402bac:	48 b8 73 65 72 76 65 	movabs $0x6120726576726573,%rax
  402bb3:	72 20 61 
  402bb6:	48 89 45 20          	mov    %rax,0x20(%rbp)
  402bba:	c7 45 28 64 64 72 65 	movl   $0x65726464,0x28(%rbp)
  402bc1:	66 c7 45 2c 73 73    	movw   $0x7373,0x2c(%rbp)
  402bc7:	c6 45 2e 00          	movb   $0x0,0x2e(%rbp)
  402bcb:	89 df                	mov    %ebx,%edi
  402bcd:	e8 6e e1 ff ff       	callq  400d40 <close@plt>
  402bd2:	b8 ff ff ff ff       	mov    $0xffffffff,%eax
  402bd7:	e9 b1 00 00 00       	jmpq   402c8d <init_driver+0x1d7>
  402bdc:	48 c7 04 24 00 00 00 	movq   $0x0,(%rsp)
  402be3:	00 
  402be4:	48 c7 44 24 08 00 00 	movq   $0x0,0x8(%rsp)
  402beb:	00 00 
  402bed:	66 c7 04 24 02 00    	movw   $0x2,(%rsp)
  402bf3:	48 63 50 14          	movslq 0x14(%rax),%rdx
  402bf7:	48 8b 40 18          	mov    0x18(%rax),%rax
  402bfb:	48 8b 30             	mov    (%rax),%rsi
  402bfe:	48 8d 7c 24 04       	lea    0x4(%rsp),%rdi
  402c03:	b9 0c 00 00 00       	mov    $0xc,%ecx
  402c08:	e8 83 e1 ff ff       	callq  400d90 <__memmove_chk@plt>
  402c0d:	66 c7 44 24 02 4e f3 	movw   $0xf34e,0x2(%rsp)
  402c14:	ba 10 00 00 00       	mov    $0x10,%edx
  402c19:	48 89 e6             	mov    %rsp,%rsi
  402c1c:	89 df                	mov    %ebx,%edi
  402c1e:	e8 5d e2 ff ff       	callq  400e80 <connect@plt>
  402c23:	85 c0                	test   %eax,%eax
  402c25:	79 50                	jns    402c77 <init_driver+0x1c1>
  402c27:	48 b8 45 72 72 6f 72 	movabs $0x55203a726f727245,%rax
  402c2e:	3a 20 55 
  402c31:	48 89 45 00          	mov    %rax,0x0(%rbp)
  402c35:	48 b8 6e 61 62 6c 65 	movabs $0x6f7420656c62616e,%rax
  402c3c:	20 74 6f 
  402c3f:	48 89 45 08          	mov    %rax,0x8(%rbp)
  402c43:	48 b8 20 63 6f 6e 6e 	movabs $0x7463656e6e6f6320,%rax
  402c4a:	65 63 74 
  402c4d:	48 89 45 10          	mov    %rax,0x10(%rbp)
  402c51:	48 b8 20 74 6f 20 73 	movabs $0x76726573206f7420,%rax
  402c58:	65 72 76 
  402c5b:	48 89 45 18          	mov    %rax,0x18(%rbp)
  402c5f:	66 c7 45 20 65 72    	movw   $0x7265,0x20(%rbp)
  402c65:	c6 45 22 00          	movb   $0x0,0x22(%rbp)
  402c69:	89 df                	mov    %ebx,%edi
  402c6b:	e8 d0 e0 ff ff       	callq  400d40 <close@plt>
  402c70:	b8 ff ff ff ff       	mov    $0xffffffff,%eax
  402c75:	eb 16                	jmp    402c8d <init_driver+0x1d7>
  402c77:	89 df                	mov    %ebx,%edi
  402c79:	e8 c2 e0 ff ff       	callq  400d40 <close@plt>
  402c7e:	66 c7 45 00 4f 4b    	movw   $0x4b4f,0x0(%rbp)
  402c84:	c6 45 02 00          	movb   $0x0,0x2(%rbp)
  402c88:	b8 00 00 00 00       	mov    $0x0,%eax
  402c8d:	48 8b 4c 24 18       	mov    0x18(%rsp),%rcx
  402c92:	64 48 33 0c 25 28 00 	xor    %fs:0x28,%rcx
  402c99:	00 00 
  402c9b:	74 05                	je     402ca2 <init_driver+0x1ec>
  402c9d:	e8 5e e0 ff ff       	callq  400d00 <__stack_chk_fail@plt>
  402ca2:	48 83 c4 28          	add    $0x28,%rsp
  402ca6:	5b                   	pop    %rbx
  402ca7:	5d                   	pop    %rbp
  402ca8:	c3                   	retq   

0000000000402ca9 <driver_post>:
  402ca9:	53                   	push   %rbx
  402caa:	4c 89 cb             	mov    %r9,%rbx
  402cad:	45 85 c0             	test   %r8d,%r8d
  402cb0:	74 27                	je     402cd9 <driver_post+0x30>
  402cb2:	48 89 ca             	mov    %rcx,%rdx
  402cb5:	be d5 35 40 00       	mov    $0x4035d5,%esi
  402cba:	bf 01 00 00 00       	mov    $0x1,%edi
  402cbf:	b8 00 00 00 00       	mov    $0x0,%eax
  402cc4:	e8 57 e1 ff ff       	callq  400e20 <__printf_chk@plt>
  402cc9:	66 c7 03 4f 4b       	movw   $0x4b4f,(%rbx)
  402cce:	c6 43 02 00          	movb   $0x0,0x2(%rbx)
  402cd2:	b8 00 00 00 00       	mov    $0x0,%eax
  402cd7:	eb 3f                	jmp    402d18 <driver_post+0x6f>
  402cd9:	48 85 ff             	test   %rdi,%rdi
  402cdc:	74 2c                	je     402d0a <driver_post+0x61>
  402cde:	80 3f 00             	cmpb   $0x0,(%rdi)
  402ce1:	74 27                	je     402d0a <driver_post+0x61>
  402ce3:	48 83 ec 08          	sub    $0x8,%rsp
  402ce7:	41 51                	push   %r9
  402ce9:	49 89 c9             	mov    %rcx,%r9
  402cec:	49 89 d0             	mov    %rdx,%r8
  402cef:	48 89 f9             	mov    %rdi,%rcx
  402cf2:	48 89 f2             	mov    %rsi,%rdx
  402cf5:	be f3 4e 00 00       	mov    $0x4ef3,%esi
  402cfa:	bf 0f 31 40 00       	mov    $0x40310f,%edi
  402cff:	e8 28 f6 ff ff       	callq  40232c <submitr>
  402d04:	48 83 c4 10          	add    $0x10,%rsp
  402d08:	eb 0e                	jmp    402d18 <driver_post+0x6f>
  402d0a:	66 c7 03 4f 4b       	movw   $0x4b4f,(%rbx)
  402d0f:	c6 43 02 00          	movb   $0x0,0x2(%rbx)
  402d13:	b8 00 00 00 00       	mov    $0x0,%eax
  402d18:	5b                   	pop    %rbx
  402d19:	c3                   	retq   

0000000000402d1a <check>:
  402d1a:	89 f8                	mov    %edi,%eax
  402d1c:	c1 e8 1c             	shr    $0x1c,%eax
  402d1f:	85 c0                	test   %eax,%eax
  402d21:	74 1d                	je     402d40 <check+0x26>
  402d23:	b9 00 00 00 00       	mov    $0x0,%ecx
  402d28:	eb 0b                	jmp    402d35 <check+0x1b>
  402d2a:	89 f8                	mov    %edi,%eax
  402d2c:	d3 e8                	shr    %cl,%eax
  402d2e:	3c 0a                	cmp    $0xa,%al
  402d30:	74 14                	je     402d46 <check+0x2c>
  402d32:	83 c1 08             	add    $0x8,%ecx
  402d35:	83 f9 1f             	cmp    $0x1f,%ecx
  402d38:	7e f0                	jle    402d2a <check+0x10>
  402d3a:	b8 01 00 00 00       	mov    $0x1,%eax
  402d3f:	c3                   	retq   
  402d40:	b8 00 00 00 00       	mov    $0x0,%eax
  402d45:	c3                   	retq   
  402d46:	b8 00 00 00 00       	mov    $0x0,%eax
  402d4b:	c3                   	retq   

0000000000402d4c <gencookie>:
  402d4c:	53                   	push   %rbx
  402d4d:	83 c7 01             	add    $0x1,%edi
  402d50:	e8 5b df ff ff       	callq  400cb0 <srandom@plt>
  402d55:	e8 86 e0 ff ff       	callq  400de0 <random@plt>
  402d5a:	89 c3                	mov    %eax,%ebx
  402d5c:	89 c7                	mov    %eax,%edi
  402d5e:	e8 b7 ff ff ff       	callq  402d1a <check>
  402d63:	85 c0                	test   %eax,%eax
  402d65:	74 ee                	je     402d55 <gencookie+0x9>
  402d67:	89 d8                	mov    %ebx,%eax
  402d69:	5b                   	pop    %rbx
  402d6a:	c3                   	retq   
  402d6b:	0f 1f 44 00 00       	nopl   0x0(%rax,%rax,1)

0000000000402d70 <__libc_csu_init>:
  402d70:	41 57                	push   %r15
  402d72:	41 89 ff             	mov    %edi,%r15d
  402d75:	41 56                	push   %r14
  402d77:	49 89 f6             	mov    %rsi,%r14
  402d7a:	41 55                	push   %r13
  402d7c:	49 89 d5             	mov    %rdx,%r13
  402d7f:	41 54                	push   %r12
  402d81:	4c 8d 25 88 10 20 00 	lea    0x201088(%rip),%r12        # 603e10 <__frame_dummy_init_array_entry>
  402d88:	55                   	push   %rbp
  402d89:	48 8d 2d 88 10 20 00 	lea    0x201088(%rip),%rbp        # 603e18 <__init_array_end>
  402d90:	53                   	push   %rbx
  402d91:	4c 29 e5             	sub    %r12,%rbp
  402d94:	31 db                	xor    %ebx,%ebx
  402d96:	48 c1 fd 03          	sar    $0x3,%rbp
  402d9a:	48 83 ec 08          	sub    $0x8,%rsp
  402d9e:	e8 bd de ff ff       	callq  400c60 <_init>
  402da3:	48 85 ed             	test   %rbp,%rbp
  402da6:	74 1e                	je     402dc6 <__libc_csu_init+0x56>
  402da8:	0f 1f 84 00 00 00 00 	nopl   0x0(%rax,%rax,1)
  402daf:	00 
  402db0:	4c 89 ea             	mov    %r13,%rdx
  402db3:	4c 89 f6             	mov    %r14,%rsi
  402db6:	44 89 ff             	mov    %r15d,%edi
  402db9:	41 ff 14 dc          	callq  *(%r12,%rbx,8)
  402dbd:	48 83 c3 01          	add    $0x1,%rbx
  402dc1:	48 39 eb             	cmp    %rbp,%rbx
  402dc4:	75 ea                	jne    402db0 <__libc_csu_init+0x40>
  402dc6:	48 83 c4 08          	add    $0x8,%rsp
  402dca:	5b                   	pop    %rbx
  402dcb:	5d                   	pop    %rbp
  402dcc:	41 5c                	pop    %r12
  402dce:	41 5d                	pop    %r13
  402dd0:	41 5e                	pop    %r14
  402dd2:	41 5f                	pop    %r15
  402dd4:	c3                   	retq   
  402dd5:	66 66 2e 0f 1f 84 00 	data16 nopw %cs:0x0(%rax,%rax,1)
  402ddc:	00 00 00 00 

0000000000402de0 <__libc_csu_fini>:
  402de0:	f3 c3                	repz retq 

Disassembly of section .fini:

0000000000402de4 <_fini>:
  402de4:	48 83 ec 08          	sub    $0x8,%rsp
  402de8:	48 83 c4 08          	add    $0x8,%rsp
  402dec:	c3                   	retq   
